
mecrisp-stellaris-stm32f411.elf:     file format elf32-littlearm


Disassembly of section .text:

00000000 <CoreDictionaryAnfang-0x188>:
       0:	20000330 	andcs	r0, r0, r0, lsr r3
       4:	0000398f 	andeq	r3, r0, pc, lsl #19
       8:	000037cf 	andeq	r3, r0, pc, asr #15
       c:	000037cf 	andeq	r3, r0, pc, asr #15
      10:	000037cf 	andeq	r3, r0, pc, asr #15
      14:	000037cf 	andeq	r3, r0, pc, asr #15
      18:	000037cf 	andeq	r3, r0, pc, asr #15
	...
      2c:	000037fd 	strdeq	r3, [r0], -sp
      30:	000037fd 	strdeq	r3, [r0], -sp
      34:	00000000 	andeq	r0, r0, r0
      38:	000037fd 	strdeq	r3, [r0], -sp
      3c:	000037a7 	andeq	r3, r0, r7, lsr #15
      40:	000037fd 	strdeq	r3, [r0], -sp
      44:	000037fd 	strdeq	r3, [r0], -sp
      48:	000037fd 	strdeq	r3, [r0], -sp
      4c:	000037fd 	strdeq	r3, [r0], -sp
      50:	000037fd 	strdeq	r3, [r0], -sp
      54:	000037fd 	strdeq	r3, [r0], -sp
      58:	00003825 	andeq	r3, r0, r5, lsr #16
      5c:	0000384d 	andeq	r3, r0, sp, asr #16
      60:	00003875 	andeq	r3, r0, r5, ror r8
      64:	0000389d 	muleq	r0, sp, r8
      68:	000038c5 	andeq	r3, r0, r5, asr #17
      6c:	000037fd 	strdeq	r3, [r0], -sp
      70:	000037fd 	strdeq	r3, [r0], -sp
      74:	000037fd 	strdeq	r3, [r0], -sp
      78:	000037fd 	strdeq	r3, [r0], -sp
      7c:	000037fd 	strdeq	r3, [r0], -sp
      80:	000037fd 	strdeq	r3, [r0], -sp
      84:	000037fd 	strdeq	r3, [r0], -sp
      88:	000038eb 	andeq	r3, r0, fp, ror #17
      8c:	000037fd 	strdeq	r3, [r0], -sp
      90:	000037fd 	strdeq	r3, [r0], -sp
      94:	000037fd 	strdeq	r3, [r0], -sp
      98:	000037fd 	strdeq	r3, [r0], -sp
      9c:	000037fd 	strdeq	r3, [r0], -sp
      a0:	000037fd 	strdeq	r3, [r0], -sp
      a4:	000037fd 	strdeq	r3, [r0], -sp
      a8:	000037fd 	strdeq	r3, [r0], -sp
      ac:	000037fd 	strdeq	r3, [r0], -sp
      b0:	00003913 	andeq	r3, r0, r3, lsl r9
      b4:	0000393b 	andeq	r3, r0, fp, lsr r9
      b8:	00003963 	andeq	r3, r0, r3, ror #18
      bc:	000037fd 	strdeq	r3, [r0], -sp
      c0:	000037fd 	strdeq	r3, [r0], -sp
      c4:	000037fd 	strdeq	r3, [r0], -sp
      c8:	000037fd 	strdeq	r3, [r0], -sp
      cc:	000037fd 	strdeq	r3, [r0], -sp
      d0:	000037fd 	strdeq	r3, [r0], -sp
      d4:	000037fd 	strdeq	r3, [r0], -sp
      d8:	000037fd 	strdeq	r3, [r0], -sp
      dc:	000037fd 	strdeq	r3, [r0], -sp
      e0:	000037fd 	strdeq	r3, [r0], -sp
      e4:	000037fd 	strdeq	r3, [r0], -sp
      e8:	000037fd 	strdeq	r3, [r0], -sp
      ec:	000037fd 	strdeq	r3, [r0], -sp
      f0:	000037fd 	strdeq	r3, [r0], -sp
      f4:	000037fd 	strdeq	r3, [r0], -sp
      f8:	000037fd 	strdeq	r3, [r0], -sp
      fc:	000037fd 	strdeq	r3, [r0], -sp
     100:	000037fd 	strdeq	r3, [r0], -sp
     104:	000037fd 	strdeq	r3, [r0], -sp
     108:	000037fd 	strdeq	r3, [r0], -sp
     10c:	000037fd 	strdeq	r3, [r0], -sp
     110:	000037fd 	strdeq	r3, [r0], -sp
     114:	000037fd 	strdeq	r3, [r0], -sp
     118:	000037fd 	strdeq	r3, [r0], -sp
     11c:	000037fd 	strdeq	r3, [r0], -sp
     120:	000037fd 	strdeq	r3, [r0], -sp
     124:	000037fd 	strdeq	r3, [r0], -sp
     128:	000037fd 	strdeq	r3, [r0], -sp
     12c:	000037fd 	strdeq	r3, [r0], -sp
     130:	000037fd 	strdeq	r3, [r0], -sp
     134:	000037fd 	strdeq	r3, [r0], -sp
     138:	000037fd 	strdeq	r3, [r0], -sp
     13c:	000037fd 	strdeq	r3, [r0], -sp
     140:	000037fd 	strdeq	r3, [r0], -sp
     144:	000037fd 	strdeq	r3, [r0], -sp
     148:	000037fd 	strdeq	r3, [r0], -sp
     14c:	000037fd 	strdeq	r3, [r0], -sp
     150:	000037fd 	strdeq	r3, [r0], -sp
     154:	000037fd 	strdeq	r3, [r0], -sp
     158:	000037fd 	strdeq	r3, [r0], -sp
     15c:	000037fd 	strdeq	r3, [r0], -sp
     160:	000037fd 	strdeq	r3, [r0], -sp
     164:	000037fd 	strdeq	r3, [r0], -sp
     168:	000037fd 	strdeq	r3, [r0], -sp
     16c:	000037fd 	strdeq	r3, [r0], -sp
     170:	000037fd 	strdeq	r3, [r0], -sp
     174:	000037fd 	strdeq	r3, [r0], -sp
     178:	000037fd 	strdeq	r3, [r0], -sp
     17c:	000037fd 	strdeq	r3, [r0], -sp
     180:	000037fd 	strdeq	r3, [r0], -sp
     184:	000037fd 	strdeq	r3, [r0], -sp

00000188 <CoreDictionaryAnfang>:
     188:	000001ae 	andeq	r0, r0, lr, lsr #3
     18c:	2d1effff 	ldccs	15, cr15, [lr, #-1020]	; 0xfffffc04
     190:	4d202d2d 	stcmi	13, cr2, [r0, #-180]!	; 0xffffff4c
     194:	69726365 	ldmdbvs	r2!, {r0, r2, r5, r6, r8, r9, sp, lr}^
     198:	532d7073 	teqpl	sp, #115	; 0x73
     19c:	6c6c6574 	cfstr64vs	mvdx6, [ip], #-464	; 0xfffffe30
     1a0:	73697261 	cmnvc	r9, #268435462	; 0x10000006
     1a4:	726f4320 	rsbvc	r4, pc, #32, 6	; 0x80000000
     1a8:	2d2d2065 	stccs	0, cr2, [sp, #-404]!	; 0xfffffe6c
     1ac:	01c6002d 	biceq	r0, r6, sp, lsr #32

000001ae <Code_16>:
     1ae:	000001c6 	andeq	r0, r0, r6, asr #3
     1b2:	32040042 	andcc	r0, r4, #66	; 0x42
     1b6:	00707564 	rsbseq	r7, r0, r4, ror #10

000001ba <Code_17>:
     1ba:	6838      	ldr	r0, [r7, #0]
     1bc:	f847 6d04 	str.w	r6, [r7, #-4]!
     1c0:	3f04      	subs	r7, #4
     1c2:	6038      	str	r0, [r7, #0]
     1c4:	4770      	bx	lr

000001c6 <Dictionary_19>:
     1c6:	000001d8 	ldrdeq	r0, [r0], -r8
     1ca:	32050062 	andcc	r0, r5, #98	; 0x62
     1ce:	706f7264 	rsbvc	r7, pc, r4, ror #4

000001d2 <Code_19>:
     1d2:	3704      	adds	r7, #4
     1d4:	cf40      	ldmia	r7!, {r6}
     1d6:	4770      	bx	lr

000001d8 <Dictionary_21>:
     1d8:	000001f6 	strdeq	r0, [r0], -r6
     1dc:	32050044 	andcc	r0, r5, #68	; 0x44
     1e0:	70617773 	rsbvc	r7, r1, r3, ror r7

000001e4 <Code_21>:
     1e4:	cf07      	ldmia	r7!, {r0, r1, r2}
     1e6:	3f04      	subs	r7, #4
     1e8:	6038      	str	r0, [r7, #0]
     1ea:	f847 6d04 	str.w	r6, [r7, #-4]!
     1ee:	3f04      	subs	r7, #4
     1f0:	603a      	str	r2, [r7, #0]
     1f2:	000e      	movs	r6, r1
     1f4:	4770      	bx	lr

000001f6 <Dictionary_23>:
     1f6:	0000020a 	andeq	r0, r0, sl, lsl #4
     1fa:	32040062 	andcc	r0, r4, #98	; 0x62
     1fe:	0070696e 	rsbseq	r6, r0, lr, ror #18

00000202 <Code_23>:
     202:	cf07      	ldmia	r7!, {r0, r1, r2}
     204:	3f04      	subs	r7, #4
     206:	6038      	str	r0, [r7, #0]
     208:	4770      	bx	lr

0000020a <Dictionary_24>:
     20a:	00000224 	andeq	r0, r0, r4, lsr #4
     20e:	32050044 	andcc	r0, r5, #68	; 0x44
     212:	7265766f 	rsbvc	r7, r5, #116391936	; 0x6f00000

00000216 <Code_24>:
     216:	68b8      	ldr	r0, [r7, #8]
     218:	f847 6d04 	str.w	r6, [r7, #-4]!
     21c:	3f04      	subs	r7, #4
     21e:	6038      	str	r0, [r7, #0]
     220:	68fe      	ldr	r6, [r7, #12]
     222:	4770      	bx	lr

00000224 <Dictionary_26>:
     224:	00000248 	andeq	r0, r0, r8, asr #4
     228:	32050044 	andcc	r0, r5, #68	; 0x44
     22c:	6b637574 	blvs	18dd804 <BIT24+0x8dd804>

00000230 <Code_26>:
     230:	cf07      	ldmia	r7!, {r0, r1, r2}
     232:	3f04      	subs	r7, #4
     234:	6038      	str	r0, [r7, #0]
     236:	f847 6d04 	str.w	r6, [r7, #-4]!
     23a:	3f04      	subs	r7, #4
     23c:	603a      	str	r2, [r7, #0]
     23e:	3f04      	subs	r7, #4
     240:	6039      	str	r1, [r7, #0]
     242:	3f04      	subs	r7, #4
     244:	6038      	str	r0, [r7, #0]
     246:	4770      	bx	lr

00000248 <Dictionary_28>:
     248:	0000026a 	andeq	r0, r0, sl, ror #4
     24c:	32040046 	andcc	r0, r4, #70	; 0x46
     250:	00746f72 	rsbseq	r6, r4, r2, ror pc

00000254 <Code_28>:
     254:	6838      	ldr	r0, [r7, #0]
     256:	68b9      	ldr	r1, [r7, #8]
     258:	693a      	ldr	r2, [r7, #16]
     25a:	60b8      	str	r0, [r7, #8]
     25c:	6139      	str	r1, [r7, #16]
     25e:	603a      	str	r2, [r7, #0]
     260:	6879      	ldr	r1, [r7, #4]
     262:	607e      	str	r6, [r7, #4]
     264:	68fe      	ldr	r6, [r7, #12]
     266:	60f9      	str	r1, [r7, #12]
     268:	4770      	bx	lr

0000026a <Dictionary_29>:
     26a:	0000028c 	andeq	r0, r0, ip, lsl #5
     26e:	32050046 	andcc	r0, r5, #70	; 0x46
     272:	746f722d 	strbtvc	r7, [pc], #-557	; 27a <Code_29+0x4>

00000276 <Code_29>:
     276:	6838      	ldr	r0, [r7, #0]
     278:	68b9      	ldr	r1, [r7, #8]
     27a:	693a      	ldr	r2, [r7, #16]
     27c:	6138      	str	r0, [r7, #16]
     27e:	6039      	str	r1, [r7, #0]
     280:	60ba      	str	r2, [r7, #8]
     282:	68f9      	ldr	r1, [r7, #12]
     284:	60fe      	str	r6, [r7, #12]
     286:	687e      	ldr	r6, [r7, #4]
     288:	6079      	str	r1, [r7, #4]
     28a:	4770      	bx	lr

0000028c <Dictionary_30>:
     28c:	000002a0 	andeq	r0, r0, r0, lsr #5
     290:	32030020 	andcc	r0, r3, #32
     294:	cf01723e 	svcgt	0x0001723e

00000296 <Code_30>:
     296:	cf01      	ldmia	r7!, {r0}
     298:	b401      	push	{r0}
     29a:	b440      	push	{r6}
     29c:	cf40      	ldmia	r7!, {r6}
     29e:	4770      	bx	lr

000002a0 <Dictionary_31>:
     2a0:	000002b8 			; <UNDEFINED> instruction: 0x000002b8
     2a4:	32030020 	andcc	r0, r3, #32
     2a8:	f8473e72 			; <UNDEFINED> instruction: 0xf8473e72

000002aa <Code_31>:
     2aa:	f847 6d04 	str.w	r6, [r7, #-4]!
     2ae:	bc40      	pop	{r6}
     2b0:	bc01      	pop	{r0}
     2b2:	3f04      	subs	r7, #4
     2b4:	6038      	str	r0, [r7, #0]
     2b6:	4770      	bx	lr

000002b8 <Dictionary_33>:
     2b8:	000002d0 	ldrdeq	r0, [r0], -r0	; <UNPREDICTABLE>
     2bc:	32030020 	andcc	r0, r3, #32
     2c0:	f8474072 			; <UNDEFINED> instruction: 0xf8474072

000002c2 <Code_33>:
     2c2:	f847 6d04 	str.w	r6, [r7, #-4]!
     2c6:	9e01      	ldr	r6, [sp, #4]
     2c8:	f847 6d04 	str.w	r6, [r7, #-4]!
     2cc:	9e00      	ldr	r6, [sp, #0]
     2ce:	4770      	bx	lr

000002d0 <Dictionary_36>:
     2d0:	000002e2 	andeq	r0, r0, r2, ror #5
     2d4:	32060020 	andcc	r0, r6, #32
     2d8:	6f726472 	svcvs	0x00726472
     2dc:	b0020070 	andlt	r0, r2, r0, ror r0

000002de <Code_36>:
     2de:	b002      	add	sp, #8
     2e0:	4770      	bx	lr

000002e2 <Dictionary_37>:
     2e2:	000002fa 	strdeq	r0, [r0], -sl
     2e6:	64030042 	strvs	r0, [r3], #-66	; 0x42
     2ea:	68382f32 	ldmdavs	r8!, {r1, r4, r5, r8, r9, sl, fp, sp}

000002ec <Code_37>:
     2ec:	6838      	ldr	r0, [r7, #0]
     2ee:	07f1      	lsls	r1, r6, #31
     2f0:	1076      	asrs	r6, r6, #1
     2f2:	0840      	lsrs	r0, r0, #1
     2f4:	4308      	orrs	r0, r1
     2f6:	6038      	str	r0, [r7, #0]
     2f8:	4770      	bx	lr

000002fa <Dictionary_38>:
     2fa:	0000030e 	andeq	r0, r0, lr, lsl #6
     2fe:	64030062 	strvs	r0, [r3], #-98	; 0x62
     302:	68382a32 	ldmdavs	r8!, {r1, r4, r5, r9, fp, sp}

00000304 <Code_38>:
     304:	6838      	ldr	r0, [r7, #0]
     306:	1800      	adds	r0, r0, r0
     308:	4176      	adcs	r6, r6
     30a:	6038      	str	r0, [r7, #0]
     30c:	4770      	bx	lr

0000030e <Dictionary_39>:
     30e:	00000328 	andeq	r0, r0, r8, lsr #6
     312:	64040042 	strvs	r0, [r4], #-66	; 0x42
     316:	00726873 	rsbseq	r6, r2, r3, ror r8

0000031a <Code_39>:
     31a:	6838      	ldr	r0, [r7, #0]
     31c:	07f1      	lsls	r1, r6, #31
     31e:	0876      	lsrs	r6, r6, #1
     320:	0840      	lsrs	r0, r0, #1
     322:	4308      	orrs	r0, r1
     324:	6038      	str	r0, [r7, #0]
     326:	4770      	bx	lr

00000328 <Dictionary_40>:
     328:	0000033e 	andeq	r0, r0, lr, lsr r3
     32c:	64040062 	strvs	r0, [r4], #-98	; 0x62
     330:	006c6873 	rsbeq	r6, ip, r3, ror r8

00000334 <Code_40>:
     334:	6838      	ldr	r0, [r7, #0]
     336:	1800      	adds	r0, r0, r0
     338:	4176      	adcs	r6, r6
     33a:	6038      	str	r0, [r7, #0]
     33c:	4770      	bx	lr

0000033e <Dictionary_41>:
     33e:	00000350 	andeq	r0, r0, r0, asr r3
     342:	64040042 	strvs	r0, [r4], #-66	; 0x42
     346:	00736261 	rsbseq	r6, r3, r1, ror #4

0000034a <Code_41>:
     34a:	2e00      	cmp	r6, #0
     34c:	d407      	bmi.n	35e <Code_42>
     34e:	4770      	bx	lr

00000350 <Dictionary_42>:
     350:	0000036e 	andeq	r0, r0, lr, ror #6
     354:	64070042 	strvs	r0, [r7], #-66	; 0x42
     358:	6167656e 	cmnvs	r7, lr, ror #10
     35c:	68386574 	ldmdavs	r8!, {r2, r4, r5, r6, r8, sl, sp, lr}

0000035e <Code_42>:
     35e:	6838      	ldr	r0, [r7, #0]
     360:	2100      	movs	r1, #0
     362:	43c0      	mvns	r0, r0
     364:	43f6      	mvns	r6, r6
     366:	3001      	adds	r0, #1
     368:	414e      	adcs	r6, r1
     36a:	6038      	str	r0, [r7, #0]
     36c:	4770      	bx	lr

0000036e <Dictionary_43>:
     36e:	00000386 	andeq	r0, r0, r6, lsl #7
     372:	64020064 	strvs	r0, [r2], #-100	; 0x64
     376:	cf07002d 	svcgt	0x0007002d

00000378 <Code_43>:
     378:	cf07      	ldmia	r7!, {r0, r1, r2}
     37a:	1a12      	subs	r2, r2, r0
     37c:	41b1      	sbcs	r1, r6
     37e:	000e      	movs	r6, r1
     380:	3f04      	subs	r7, #4
     382:	603a      	str	r2, [r7, #0]
     384:	4770      	bx	lr

00000386 <Dictionary_44>:
     386:	0000039c 	muleq	r0, ip, r3
     38a:	64020064 	strvs	r0, [r2], #-100	; 0x64
     38e:	cf07002b 	svcgt	0x0007002b

00000390 <Code_44>:
     390:	cf07      	ldmia	r7!, {r0, r1, r2}
     392:	1812      	adds	r2, r2, r0
     394:	414e      	adcs	r6, r1
     396:	3f04      	subs	r7, #4
     398:	603a      	str	r2, [r7, #0]
     39a:	4770      	bx	lr

0000039c <Dictionary_45>:
     39c:	000003ae 	andeq	r0, r0, lr, lsr #7
     3a0:	73030061 	movwvc	r0, #12385	; 0x3061
     3a4:	f847643e 			; <UNDEFINED> instruction: 0xf847643e

000003a6 <Code_45>:
     3a6:	f847 6d04 	str.w	r6, [r7, #-4]!
     3aa:	17f6      	asrs	r6, r6, #31
     3ac:	4770      	bx	lr

000003ae <Dictionary_47>:
     3ae:	000003c2 	andeq	r0, r0, r2, asr #7
     3b2:	75030062 	strvc	r0, [r3, #-98]	; 0x62
     3b6:	68382a6d 	ldmdavs	r8!, {r0, r2, r3, r5, r6, r9, fp, sp}

000003b8 <Code_47>:
     3b8:	6838      	ldr	r0, [r7, #0]
     3ba:	fba0 0606 	umull	r0, r6, r0, r6
     3be:	6038      	str	r0, [r7, #0]
     3c0:	4770      	bx	lr

000003c2 <Dictionary_48>:
     3c2:	000003d6 	ldrdeq	r0, [r0], -r6
     3c6:	6d020062 	stcvs	0, cr0, [r2, #-392]	; 0xfffffe78
     3ca:	6838002a 	ldmdavs	r8!, {r1, r3, r5}

000003cc <Code_48>:
     3cc:	6838      	ldr	r0, [r7, #0]
     3ce:	fb80 0606 	smull	r0, r6, r0, r6
     3d2:	6038      	str	r0, [r7, #0]
     3d4:	4770      	bx	lr

000003d6 <Dictionary_49>:
     3d6:	00000414 	andeq	r0, r0, r4, lsl r4
     3da:	75030044 	strvc	r0, [r3, #-68]	; 0x44
     3de:	cf072a64 	svcgt	0x00072a64

000003e0 <Code_49>:
     3e0:	cf07      	ldmia	r7!, {r0, r1, r2}
     3e2:	4356      	muls	r6, r2
     3e4:	4341      	muls	r1, r0
     3e6:	1876      	adds	r6, r6, r1
     3e8:	0c01      	lsrs	r1, r0, #16
     3ea:	0c13      	lsrs	r3, r2, #16
     3ec:	4359      	muls	r1, r3
     3ee:	1876      	adds	r6, r6, r1
     3f0:	0c01      	lsrs	r1, r0, #16
     3f2:	b280      	uxth	r0, r0
     3f4:	b292      	uxth	r2, r2
     3f6:	4351      	muls	r1, r2
     3f8:	4343      	muls	r3, r0
     3fa:	4350      	muls	r0, r2
     3fc:	2200      	movs	r2, #0
     3fe:	18c9      	adds	r1, r1, r3
     400:	4152      	adcs	r2, r2
     402:	0412      	lsls	r2, r2, #16
     404:	18b6      	adds	r6, r6, r2
     406:	040a      	lsls	r2, r1, #16
     408:	0c09      	lsrs	r1, r1, #16
     40a:	1880      	adds	r0, r0, r2
     40c:	414e      	adcs	r6, r1
     40e:	3f04      	subs	r7, #4
     410:	6038      	str	r0, [r7, #0]
     412:	4770      	bx	lr

00000414 <Dictionary_50>:
     414:	000004a6 	andeq	r0, r0, r6, lsr #9
     418:	75040044 	strvc	r0, [r4, #-68]	; 0x44
     41c:	002a6d64 	eoreq	r6, sl, r4, ror #26

00000420 <Code_50>:
     420:	b510      	push	{r4, lr}
     422:	2400      	movs	r4, #0
     424:	f847 6d04 	str.w	r6, [r7, #-4]!
     428:	687e      	ldr	r6, [r7, #4]
     42a:	f847 6d04 	str.w	r6, [r7, #-4]!
     42e:	693e      	ldr	r6, [r7, #16]
     430:	f7ff ffc2 	bl	3b8 <Code_47>
     434:	0031      	movs	r1, r6
     436:	cf40      	ldmia	r7!, {r6}
     438:	0030      	movs	r0, r6
     43a:	cf40      	ldmia	r7!, {r6}
     43c:	f847 6d04 	str.w	r6, [r7, #-4]!
     440:	683e      	ldr	r6, [r7, #0]
     442:	f847 6d04 	str.w	r6, [r7, #-4]!
     446:	68fe      	ldr	r6, [r7, #12]
     448:	b403      	push	{r0, r1}
     44a:	f7ff ffb5 	bl	3b8 <Code_47>
     44e:	bc03      	pop	{r0, r1}
     450:	0033      	movs	r3, r6
     452:	cf40      	ldmia	r7!, {r6}
     454:	0032      	movs	r2, r6
     456:	cf40      	ldmia	r7!, {r6}
     458:	f847 6d04 	str.w	r6, [r7, #-4]!
     45c:	683e      	ldr	r6, [r7, #0]
     45e:	f847 6d04 	str.w	r6, [r7, #-4]!
     462:	693e      	ldr	r6, [r7, #16]
     464:	b40f      	push	{r0, r1, r2, r3}
     466:	f7ff ffa7 	bl	3b8 <Code_47>
     46a:	bc0f      	pop	{r0, r1, r2, r3}
     46c:	1992      	adds	r2, r2, r6
     46e:	4163      	adcs	r3, r4
     470:	cf40      	ldmia	r7!, {r6}
     472:	1989      	adds	r1, r1, r6
     474:	4162      	adcs	r2, r4
     476:	4163      	adcs	r3, r4
     478:	cf40      	ldmia	r7!, {r6}
     47a:	f847 6d04 	str.w	r6, [r7, #-4]!
     47e:	687e      	ldr	r6, [r7, #4]
     480:	f847 6d04 	str.w	r6, [r7, #-4]!
     484:	68fe      	ldr	r6, [r7, #12]
     486:	b40f      	push	{r0, r1, r2, r3}
     488:	f7ff ff96 	bl	3b8 <Code_47>
     48c:	bc0f      	pop	{r0, r1, r2, r3}
     48e:	1992      	adds	r2, r2, r6
     490:	4163      	adcs	r3, r4
     492:	cf40      	ldmia	r7!, {r6}
     494:	1989      	adds	r1, r1, r6
     496:	4162      	adcs	r2, r4
     498:	4163      	adcs	r3, r4
     49a:	cf40      	ldmia	r7!, {r6}
     49c:	001e      	movs	r6, r3
     49e:	603a      	str	r2, [r7, #0]
     4a0:	6079      	str	r1, [r7, #4]
     4a2:	60b8      	str	r0, [r7, #8]
     4a4:	bd10      	pop	{r4, pc}

000004a6 <Dictionary_67>:
     4a6:	000004c8 	andeq	r0, r0, r8, asr #9
     4aa:	2a020043 	bcs	805be <BIT19+0x5be>
     4ae:	b500002f 	strlt	r0, [r0, #-47]	; 0x2f

000004b0 <Code_67>:
     4b0:	b500      	push	{lr}
     4b2:	b440      	push	{r6}
     4b4:	cf40      	ldmia	r7!, {r6}
     4b6:	f7ff ff89 	bl	3cc <Code_48>
     4ba:	f847 6d04 	str.w	r6, [r7, #-4]!
     4be:	bc40      	pop	{r6}
     4c0:	f000 f84c 	bl	55c <Code_90>
     4c4:	3704      	adds	r7, #4
     4c6:	bd00      	pop	{pc}

000004c8 <Dictionary_72>:
     4c8:	000004ea 	andeq	r0, r0, sl, ror #9
     4cc:	2a050043 	bcs	1405e0 <BIT20+0x405e0>
     4d0:	646f6d2f 	strbtvs	r6, [pc], #-3375	; 4d8 <Code_72+0x4>

000004d4 <Code_72>:
     4d4:	b500      	push	{lr}
     4d6:	b440      	push	{r6}
     4d8:	cf40      	ldmia	r7!, {r6}
     4da:	f7ff ff77 	bl	3cc <Code_48>
     4de:	f847 6d04 	str.w	r6, [r7, #-4]!
     4e2:	bc40      	pop	{r6}
     4e4:	f000 f83a 	bl	55c <Code_90>
     4e8:	bd00      	pop	{pc}

000004ea <Dictionary_76>:
     4ea:	0000050c 	andeq	r0, r0, ip, lsl #10
     4ee:	75030043 	strvc	r0, [r3, #-67]	; 0x43
     4f2:	b5002f2a 	strlt	r2, [r0, #-3882]	; 0xf2a

000004f4 <Code_76>:
     4f4:	b500      	push	{lr}
     4f6:	b440      	push	{r6}
     4f8:	cf40      	ldmia	r7!, {r6}
     4fa:	f7ff ff5d 	bl	3b8 <Code_47>
     4fe:	f847 6d04 	str.w	r6, [r7, #-4]!
     502:	bc40      	pop	{r6}
     504:	f000 f81b 	bl	53e <Code_85>
     508:	3704      	adds	r7, #4
     50a:	bd00      	pop	{pc}

0000050c <Dictionary_81>:
     50c:	00000530 	andeq	r0, r0, r0, lsr r5
     510:	75060043 	strvc	r0, [r6, #-67]	; 0x43
     514:	6f6d2f2a 	svcvs	0x006d2f2a
     518:	b5000064 	strlt	r0, [r0, #-100]	; 0x64

0000051a <Code_81>:
     51a:	b500      	push	{lr}
     51c:	b440      	push	{r6}
     51e:	cf40      	ldmia	r7!, {r6}
     520:	f7ff ff4a 	bl	3b8 <Code_47>
     524:	f847 6d04 	str.w	r6, [r7, #-4]!
     528:	bc40      	pop	{r6}
     52a:	f000 f808 	bl	53e <Code_85>
     52e:	bd00      	pop	{pc}

00000530 <Dictionary_85>:
     530:	00000550 	andeq	r0, r0, r0, asr r5
     534:	75060043 	strvc	r0, [r6, #-67]	; 0x43
     538:	6f6d2f6d 	svcvs	0x006d2f6d
     53c:	b5000064 	strlt	r0, [r0, #-100]	; 0x64

0000053e <Code_85>:
     53e:	b500      	push	{lr}
     540:	f847 6d04 	str.w	r6, [r7, #-4]!
     544:	2600      	movs	r6, #0
     546:	f000 f819 	bl	57c <Code_94>
     54a:	cf40      	ldmia	r7!, {r6}
     54c:	3704      	adds	r7, #4
     54e:	bd00      	pop	{pc}

00000550 <Dictionary_90>:
     550:	0000056e 	andeq	r0, r0, lr, ror #10
     554:	6d050043 	stcvs	0, cr0, [r5, #-268]	; 0xfffffef4
     558:	646f6d2f 	strbtvs	r6, [pc], #-3375	; 560 <Code_90+0x4>

0000055c <Code_90>:
     55c:	b500      	push	{lr}
     55e:	f847 6d04 	str.w	r6, [r7, #-4]!
     562:	17f6      	asrs	r6, r6, #31
     564:	f000 f832 	bl	5cc <Code_96>
     568:	cf40      	ldmia	r7!, {r6}
     56a:	3704      	adds	r7, #4
     56c:	bd00      	pop	{pc}

0000056e <Dictionary_94>:
     56e:	000005c0 	andeq	r0, r0, r0, asr #11
     572:	75060044 	strvc	r0, [r6, #-68]	; 0x44
     576:	6f6d2f64 	svcvs	0x006d2f64
     57a:	b4300064 	ldrtlt	r0, [r0], #-100	; 0x64

0000057c <Code_94>:
     57c:	b430      	push	{r4, r5}
     57e:	2300      	movs	r3, #0
     580:	2200      	movs	r2, #0
     582:	6879      	ldr	r1, [r7, #4]
     584:	68b8      	ldr	r0, [r7, #8]

00000586 <ud_slash_mod_internal>:
     586:	0035      	movs	r5, r6
     588:	683c      	ldr	r4, [r7, #0]
     58a:	2640      	movs	r6, #64	; 0x40
     58c:	0040      	lsls	r0, r0, #1
     58e:	4149      	adcs	r1, r1
     590:	4152      	adcs	r2, r2
     592:	415b      	adcs	r3, r3
     594:	42ab      	cmp	r3, r5
     596:	d802      	bhi.n	59e <ud_slash_mod_internal+0x18>
     598:	d304      	bcc.n	5a4 <ud_slash_mod_internal+0x1e>
     59a:	42a2      	cmp	r2, r4
     59c:	d302      	bcc.n	5a4 <ud_slash_mod_internal+0x1e>
     59e:	1b12      	subs	r2, r2, r4
     5a0:	41ab      	sbcs	r3, r5
     5a2:	3001      	adds	r0, #1
     5a4:	3e01      	subs	r6, #1
     5a6:	d1f1      	bne.n	58c <ud_slash_mod_internal+0x6>
     5a8:	000e      	movs	r6, r1
     5aa:	6038      	str	r0, [r7, #0]
     5ac:	607b      	str	r3, [r7, #4]
     5ae:	60ba      	str	r2, [r7, #8]
     5b0:	bc30      	pop	{r4, r5}
     5b2:	4770      	bx	lr

000005b4 <uf_slash_mod>:
     5b4:	b430      	push	{r4, r5}
     5b6:	2300      	movs	r3, #0
     5b8:	687a      	ldr	r2, [r7, #4]
     5ba:	68b9      	ldr	r1, [r7, #8]
     5bc:	2000      	movs	r0, #0
     5be:	e7e2      	b.n	586 <ud_slash_mod_internal>

000005c0 <Dictionary_96>:
     5c0:	00000636 	andeq	r0, r0, r6, lsr r6
     5c4:	64050044 	strvs	r0, [r5], #-68	; 0x44
     5c8:	646f6d2f 	strbtvs	r6, [pc], #-3375	; 5d0 <Code_96+0x4>

000005cc <Code_96>:
     5cc:	b500      	push	{lr}
     5ce:	17f0      	asrs	r0, r6, #31
     5d0:	d019      	beq.n	606 <Code_96+0x3a>
     5d2:	f7ff fec4 	bl	35e <Code_42>
     5d6:	f7ff fe05 	bl	1e4 <Code_21>
     5da:	17f0      	asrs	r0, r6, #31
     5dc:	d00c      	beq.n	5f8 <Code_96+0x2c>
     5de:	f7ff febe 	bl	35e <Code_42>
     5e2:	f7ff fdff 	bl	1e4 <Code_21>
     5e6:	f7ff ffc9 	bl	57c <Code_94>
     5ea:	f7ff fdfb 	bl	1e4 <Code_21>
     5ee:	f7ff feb6 	bl	35e <Code_42>
     5f2:	f7ff fdf7 	bl	1e4 <Code_21>
     5f6:	bd00      	pop	{pc}
     5f8:	f7ff fdf4 	bl	1e4 <Code_21>
     5fc:	f7ff ffbe 	bl	57c <Code_94>
     600:	f7ff fead 	bl	35e <Code_42>
     604:	bd00      	pop	{pc}
     606:	f7ff fded 	bl	1e4 <Code_21>
     60a:	17f0      	asrs	r0, r6, #31
     60c:	d00e      	beq.n	62c <Code_96+0x60>
     60e:	f7ff fea6 	bl	35e <Code_42>
     612:	f7ff fde7 	bl	1e4 <Code_21>
     616:	f7ff ffb1 	bl	57c <Code_94>
     61a:	f7ff fea0 	bl	35e <Code_42>
     61e:	f7ff fde1 	bl	1e4 <Code_21>
     622:	f7ff fe9c 	bl	35e <Code_42>
     626:	f7ff fddd 	bl	1e4 <Code_21>
     62a:	bd00      	pop	{pc}
     62c:	f7ff fdda 	bl	1e4 <Code_21>
     630:	f7ff ffa4 	bl	57c <Code_94>
     634:	bd00      	pop	{pc}

00000636 <Dictionary_97>:
     636:	0000064c 	andeq	r0, r0, ip, asr #12
     63a:	64020044 	strvs	r0, [r2], #-68	; 0x44
     63e:	b500002f 	strlt	r0, [r0, #-47]	; 0x2f

00000640 <Code_97>:
     640:	b500      	push	{lr}
     642:	f7ff ffc3 	bl	5cc <Code_96>
     646:	f7ff fddc 	bl	202 <Code_23>
     64a:	bd00      	pop	{pc}

0000064c <Dictionary_98>:
     64c:	00000694 	muleq	r0, r4, r6
     650:	66020044 	strvs	r0, [r2], -r4, asr #32
     654:	b500002a 	strlt	r0, [r0, #-42]	; 0x2a

00000656 <Code_98>:
     656:	b500      	push	{lr}
     658:	17f0      	asrs	r0, r6, #31
     65a:	d00d      	beq.n	678 <Code_98+0x22>
     65c:	f7ff fe7f 	bl	35e <Code_42>
     660:	f7ff fdc0 	bl	1e4 <Code_21>
     664:	17f0      	asrs	r0, r6, #31
     666:	d00d      	beq.n	684 <Code_98+0x2e>
     668:	f7ff fe79 	bl	35e <Code_42>
     66c:	f7ff fed8 	bl	420 <Code_50>
     670:	cf40      	ldmia	r7!, {r6}
     672:	cf01      	ldmia	r7!, {r0}
     674:	6038      	str	r0, [r7, #0]
     676:	bd00      	pop	{pc}
     678:	f7ff fdb4 	bl	1e4 <Code_21>
     67c:	17f0      	asrs	r0, r6, #31
     67e:	d0f5      	beq.n	66c <Code_98+0x16>
     680:	f7ff fe6d 	bl	35e <Code_42>
     684:	f7ff fecc 	bl	420 <Code_50>
     688:	cf40      	ldmia	r7!, {r6}
     68a:	cf01      	ldmia	r7!, {r0}
     68c:	6038      	str	r0, [r7, #0]
     68e:	f7ff fe66 	bl	35e <Code_42>
     692:	bd00      	pop	{pc}

00000694 <Dictionary_101>:
     694:	000006e0 	andeq	r0, r0, r0, ror #13
     698:	66020044 	strvs	r0, [r2], -r4, asr #32
     69c:	b500002f 	strlt	r0, [r0, #-47]	; 0x2f

0000069e <Code_101>:
     69e:	b500      	push	{lr}
     6a0:	17f0      	asrs	r0, r6, #31
     6a2:	d00e      	beq.n	6c2 <Code_101+0x24>
     6a4:	f7ff fe5b 	bl	35e <Code_42>
     6a8:	f7ff fd9c 	bl	1e4 <Code_21>
     6ac:	17f0      	asrs	r0, r6, #31
     6ae:	d00e      	beq.n	6ce <Code_101+0x30>
     6b0:	f7ff fe55 	bl	35e <Code_42>
     6b4:	f7ff fd96 	bl	1e4 <Code_21>
     6b8:	f7ff ff7c 	bl	5b4 <uf_slash_mod>
     6bc:	f7ff fda1 	bl	202 <Code_23>
     6c0:	bd00      	pop	{pc}
     6c2:	f7ff fd8f 	bl	1e4 <Code_21>
     6c6:	17f0      	asrs	r0, r6, #31
     6c8:	d0f4      	beq.n	6b4 <Code_101+0x16>
     6ca:	f7ff fe48 	bl	35e <Code_42>
     6ce:	f7ff fd89 	bl	1e4 <Code_21>
     6d2:	f7ff ff6f 	bl	5b4 <uf_slash_mod>
     6d6:	f7ff fe42 	bl	35e <Code_42>
     6da:	f7ff fd92 	bl	202 <Code_23>
     6de:	bd00      	pop	{pc}

000006e0 <Dictionary_102>:
     6e0:	000006f4 	strdeq	r0, [r0], -r4
     6e4:	32020020 	andcc	r0, r2, #32
     6e8:	cf060021 	svcgt	0x00060021

000006ea <Code_102>:
     6ea:	cf06      	ldmia	r7!, {r1, r2}
     6ec:	6031      	str	r1, [r6, #0]
     6ee:	6072      	str	r2, [r6, #4]
     6f0:	cf40      	ldmia	r7!, {r6}
     6f2:	4770      	bx	lr

000006f4 <Dictionary_104>:
     6f4:	00000708 	andeq	r0, r0, r8, lsl #14
     6f8:	32020020 	andcc	r0, r2, #32
     6fc:	3f040040 	svccc	0x00040040

000006fe <Code_104>:
     6fe:	3f04      	subs	r7, #4
     700:	6870      	ldr	r0, [r6, #4]
     702:	6038      	str	r0, [r7, #0]
     704:	6836      	ldr	r6, [r6, #0]
     706:	4770      	bx	lr

00000708 <Dictionary_105>:
     708:	00000728 	andeq	r0, r0, r8, lsr #14
     70c:	64030044 	strvs	r0, [r3], #-68	; 0x44
     710:	cf073c75 	svcgt	0x00073c75

00000712 <Code_105>:
     712:	cf07      	ldmia	r7!, {r0, r1, r2}
     714:	428e      	cmp	r6, r1
     716:	d804      	bhi.n	722 <Code_105+0x10>
     718:	d101      	bne.n	71e <Code_105+0xc>
     71a:	4290      	cmp	r0, r2
     71c:	d801      	bhi.n	722 <Code_105+0x10>
     71e:	2600      	movs	r6, #0
     720:	4770      	bx	lr
     722:	2600      	movs	r6, #0
     724:	43f6      	mvns	r6, r6
     726:	4770      	bx	lr

00000728 <Dictionary_106>:
     728:	00000748 	andeq	r0, r0, r8, asr #14
     72c:	64030044 	strvs	r0, [r3], #-68	; 0x44
     730:	cf073e75 	svcgt	0x00073e75

00000732 <Code_106>:
     732:	cf07      	ldmia	r7!, {r0, r1, r2}
     734:	42b1      	cmp	r1, r6
     736:	d804      	bhi.n	742 <Code_106+0x10>
     738:	d101      	bne.n	73e <Code_106+0xc>
     73a:	4282      	cmp	r2, r0
     73c:	d801      	bhi.n	742 <Code_106+0x10>
     73e:	2600      	movs	r6, #0
     740:	4770      	bx	lr
     742:	2600      	movs	r6, #0
     744:	43f6      	mvns	r6, r6
     746:	4770      	bx	lr

00000748 <Dictionary_107>:
     748:	00000768 	andeq	r0, r0, r8, ror #14
     74c:	64020044 	strvs	r0, [r2], #-68	; 0x44
     750:	cf07003c 	svcgt	0x0007003c

00000752 <Code_107>:
     752:	cf07      	ldmia	r7!, {r0, r1, r2}
     754:	428e      	cmp	r6, r1
     756:	dc04      	bgt.n	762 <Code_107+0x10>
     758:	d101      	bne.n	75e <Code_107+0xc>
     75a:	4290      	cmp	r0, r2
     75c:	dc01      	bgt.n	762 <Code_107+0x10>
     75e:	2600      	movs	r6, #0
     760:	4770      	bx	lr
     762:	2600      	movs	r6, #0
     764:	43f6      	mvns	r6, r6
     766:	4770      	bx	lr

00000768 <Dictionary_108>:
     768:	00000788 	andeq	r0, r0, r8, lsl #15
     76c:	64020044 	strvs	r0, [r2], #-68	; 0x44
     770:	cf07003e 	svcgt	0x0007003e

00000772 <Code_108>:
     772:	cf07      	ldmia	r7!, {r0, r1, r2}
     774:	42b1      	cmp	r1, r6
     776:	dc04      	bgt.n	782 <Code_108+0x10>
     778:	d101      	bne.n	77e <Code_108+0xc>
     77a:	4282      	cmp	r2, r0
     77c:	dc01      	bgt.n	782 <Code_108+0x10>
     77e:	2600      	movs	r6, #0
     780:	4770      	bx	lr
     782:	2600      	movs	r6, #0
     784:	43f6      	mvns	r6, r6
     786:	4770      	bx	lr

00000788 <Dictionary_109>:
     788:	00000798 	muleq	r0, r8, r7
     78c:	64030062 	strvs	r0, [r3], #-98	; 0x62
     790:	37043c30 	smladxcc	r4, r0, ip, r3

00000792 <Code_109>:
     792:	3704      	adds	r7, #4
     794:	17f6      	asrs	r6, r6, #31
     796:	4770      	bx	lr

00000798 <Dictionary_110>:
     798:	000007b2 			; <UNDEFINED> instruction: 0x000007b2
     79c:	64030042 	strvs	r0, [r3], #-66	; 0x42
     7a0:	cf013d30 	svcgt	0x00013d30

000007a2 <Code_110>:
     7a2:	cf01      	ldmia	r7!, {r0}
     7a4:	2800      	cmp	r0, #0
     7a6:	d001      	beq.n	7ac <Code_110+0xa>
     7a8:	2600      	movs	r6, #0
     7aa:	4770      	bx	lr
     7ac:	3e01      	subs	r6, #1
     7ae:	41b6      	sbcs	r6, r6
     7b0:	4770      	bx	lr

000007b2 <Dictionary_111>:
     7b2:	000007cc 	andeq	r0, r0, ip, asr #15
     7b6:	64030044 	strvs	r0, [r3], #-68	; 0x44
     7ba:	cf073e3c 	svcgt	0x00073e3c

000007bc <Code_111>:
     7bc:	cf07      	ldmia	r7!, {r0, r1, r2}
     7be:	4290      	cmp	r0, r2
     7c0:	d101      	bne.n	7c6 <Code_111+0xa>
     7c2:	1a76      	subs	r6, r6, r1
     7c4:	d001      	beq.n	7ca <Code_111+0xe>
     7c6:	2600      	movs	r6, #0
     7c8:	43f6      	mvns	r6, r6
     7ca:	4770      	bx	lr

000007cc <Dictionary_112>:
     7cc:	000007e8 	andeq	r0, r0, r8, ror #15
     7d0:	64020044 	strvs	r0, [r2], #-68	; 0x44
     7d4:	cf07003d 	svcgt	0x0007003d

000007d6 <Code_112>:
     7d6:	cf07      	ldmia	r7!, {r0, r1, r2}
     7d8:	4290      	cmp	r0, r2
     7da:	d001      	beq.n	7e0 <Code_112+0xa>
     7dc:	2600      	movs	r6, #0
     7de:	4770      	bx	lr
     7e0:	1a76      	subs	r6, r6, r1
     7e2:	3e01      	subs	r6, #1
     7e4:	41b6      	sbcs	r6, r6
     7e6:	4770      	bx	lr

000007e8 <Dictionary_113>:
     7e8:	000007fa 	strdeq	r0, [r0], -sl
     7ec:	73030020 	movwvc	r0, #12320	; 0x3020
     7f0:	f8474070 			; <UNDEFINED> instruction: 0xf8474070

000007f2 <Code_113>:
     7f2:	f847 6d04 	str.w	r6, [r7, #-4]!
     7f6:	003e      	movs	r6, r7
     7f8:	4770      	bx	lr

000007fa <Dictionary_115>:
     7fa:	0000080a 	andeq	r0, r0, sl, lsl #16
     7fe:	73030020 	movwvc	r0, #12320	; 0x3020
     802:	00372170 	eorseq	r2, r7, r0, ror r1

00000804 <Code_115>:
     804:	0037      	movs	r7, r6
     806:	cf40      	ldmia	r7!, {r6}
     808:	4770      	bx	lr

0000080a <Dictionary_116>:
     80a:	0000081c 	andeq	r0, r0, ip, lsl r8
     80e:	72030020 	andvc	r0, r3, #32
     812:	f8474070 			; <UNDEFINED> instruction: 0xf8474070

00000814 <Code_116>:
     814:	f847 6d04 	str.w	r6, [r7, #-4]!
     818:	466e      	mov	r6, sp
     81a:	4770      	bx	lr

0000081c <Dictionary_118>:
     81c:	0000082c 	andeq	r0, r0, ip, lsr #16
     820:	72030020 	andvc	r0, r3, #32
     824:	46b52170 			; <UNDEFINED> instruction: 0x46b52170

00000826 <Code_118>:
     826:	46b5      	mov	sp, r6
     828:	cf40      	ldmia	r7!, {r6}
     82a:	4770      	bx	lr

0000082c <Dictionary_119>:
     82c:	0000083c 	andeq	r0, r0, ip, lsr r8
     830:	64030061 	strvs	r0, [r3], #-97	; 0x61
     834:	f8477075 			; <UNDEFINED> instruction: 0xf8477075

00000836 <Code_119>:
     836:	f847 6d04 	str.w	r6, [r7, #-4]!
     83a:	4770      	bx	lr

0000083c <Dictionary_122>:
     83c:	0000084c 	andeq	r0, r0, ip, asr #16
     840:	64040061 	strvs	r0, [r4], #-97	; 0x61
     844:	00706f72 	rsbseq	r6, r0, r2, ror pc

00000848 <Code_122>:
     848:	cf40      	ldmia	r7!, {r6}
     84a:	4770      	bx	lr

0000084c <Dictionary_124>:
     84c:	00000862 	andeq	r0, r0, r2, ror #16
     850:	3f040061 	svccc	0x00040061
     854:	00707564 	rsbseq	r7, r0, r4, ror #10

00000858 <Code_124>:
     858:	2e00      	cmp	r6, #0
     85a:	d001      	beq.n	860 <Code_124+0x8>
     85c:	f847 6d04 	str.w	r6, [r7, #-4]!
     860:	4770      	bx	lr

00000862 <Dictionary_126>:
     862:	00000876 	andeq	r0, r0, r6, ror r8
     866:	73040062 	movwvc	r0, #16482	; 0x4062
     86a:	00706177 	rsbseq	r6, r0, r7, ror r1

0000086e <Code_126>:
     86e:	6839      	ldr	r1, [r7, #0]
     870:	603e      	str	r6, [r7, #0]
     872:	000e      	movs	r6, r1
     874:	4770      	bx	lr

00000876 <Dictionary_127>:
     876:	00000884 	andeq	r0, r0, r4, lsl #17
     87a:	6e030062 	cdpvs	0, 0, cr0, cr3, cr2, {3}
     87e:	37047069 	strcc	r7, [r4, -r9, rrx]

00000880 <Code_127>:
     880:	3704      	adds	r7, #4
     882:	4770      	bx	lr

00000884 <Dictionary_129>:
     884:	00000898 	muleq	r0, r8, r8
     888:	6f040062 	svcvs	0x00040062
     88c:	00726576 	rsbseq	r6, r2, r6, ror r5

00000890 <Code_129>:
     890:	f847 6d04 	str.w	r6, [r7, #-4]!
     894:	687e      	ldr	r6, [r7, #4]
     896:	4770      	bx	lr

00000898 <Dictionary_131>:
     898:	000008ae 	andeq	r0, r0, lr, lsr #17
     89c:	74040062 	strvc	r0, [r4], #-98	; 0x62
     8a0:	006b6375 	rsbeq	r6, fp, r5, ror r3

000008a4 <Code_131>:
     8a4:	cf01      	ldmia	r7!, {r0}
     8a6:	3f08      	subs	r7, #8
     8a8:	607e      	str	r6, [r7, #4]
     8aa:	6038      	str	r0, [r7, #0]
     8ac:	4770      	bx	lr

000008ae <Dictionary_132>:
     8ae:	000008c4 	andeq	r0, r0, r4, asr #17
     8b2:	72030063 	andvc	r0, r3, #99	; 0x63
     8b6:	cf03746f 	svcgt	0x0003746f

000008b8 <Code_132>:
     8b8:	cf03      	ldmia	r7!, {r0, r1}
     8ba:	3f08      	subs	r7, #8
     8bc:	6078      	str	r0, [r7, #4]
     8be:	603e      	str	r6, [r7, #0]
     8c0:	000e      	movs	r6, r1
     8c2:	4770      	bx	lr

000008c4 <Dictionary_133>:
     8c4:	000008dc 	ldrdeq	r0, [r0], -ip
     8c8:	2d040063 	stccs	0, cr0, [r4, #-396]	; 0xfffffe74
     8cc:	00746f72 	rsbseq	r6, r4, r2, ror pc

000008d0 <Code_133>:
     8d0:	cf03      	ldmia	r7!, {r0, r1}
     8d2:	3f08      	subs	r7, #8
     8d4:	607e      	str	r6, [r7, #4]
     8d6:	6039      	str	r1, [r7, #0]
     8d8:	0006      	movs	r6, r0
     8da:	4770      	bx	lr

000008dc <Dictionary_134>:
     8dc:	000008ee 	andeq	r0, r0, lr, ror #17
     8e0:	70040020 	andvc	r0, r4, r0, lsr #32
     8e4:	006b6369 	rsbeq	r6, fp, r9, ror #6

000008e8 <Code_134>:
     8e8:	f857 6026 	ldr.w	r6, [r7, r6, lsl #2]
     8ec:	4770      	bx	lr

000008ee <Dictionary_135>:
     8ee:	00000906 	andeq	r0, r0, r6, lsl #18
     8f2:	64050000 	strvs	r0, [r5], #-0
     8f6:	68747065 	ldmdavs	r4!, {r0, r2, r5, r6, ip, sp, lr}^

000008fa <Code_135>:
     8fa:	49c0      	ldr	r1, [pc, #768]	; (bfc <Code_179+0xa>)
     8fc:	1bc9      	subs	r1, r1, r7
     8fe:	f847 6d04 	str.w	r6, [r7, #-4]!
     902:	088e      	lsrs	r6, r1, #2
     904:	4770      	bx	lr

00000906 <Dictionary_137>:
     906:	00000922 	andeq	r0, r0, r2, lsr #18
     90a:	72060000 	andvc	r0, r6, #0
     90e:	74706564 	ldrbtvc	r6, [r0], #-1380	; 0x564
     912:	f8470068 			; <UNDEFINED> instruction: 0xf8470068

00000914 <Code_137>:
     914:	f847 6d04 	str.w	r6, [r7, #-4]!
     918:	466e      	mov	r6, sp
     91a:	49b9      	ldr	r1, [pc, #740]	; (c00 <Code_179+0xe>)
     91c:	1b89      	subs	r1, r1, r6
     91e:	088e      	lsrs	r6, r1, #2
     920:	4770      	bx	lr

00000922 <Dictionary_139>:
     922:	00000932 	andeq	r0, r0, r2, lsr r9
     926:	3e020020 	cdpcc	0, 0, cr0, cr2, cr0, {1}
     92a:	b4400072 	strblt	r0, [r0], #-114	; 0x72

0000092c <Code_139>:
     92c:	b440      	push	{r6}
     92e:	cf40      	ldmia	r7!, {r6}
     930:	4770      	bx	lr

00000932 <Dictionary_140>:
     932:	00000944 	andeq	r0, r0, r4, asr #18
     936:	72020020 	andvc	r0, r2, #32
     93a:	f847003e 			; <UNDEFINED> instruction: 0xf847003e

0000093c <Code_140>:
     93c:	f847 6d04 	str.w	r6, [r7, #-4]!
     940:	bc40      	pop	{r6}
     942:	4770      	bx	lr

00000944 <Dictionary_142>:
     944:	00000956 	andeq	r0, r0, r6, asr r9
     948:	72020020 	andvc	r0, r2, #32
     94c:	f8470040 			; <UNDEFINED> instruction: 0xf8470040

0000094e <Code_142>:
     94e:	f847 6d04 	str.w	r6, [r7, #-4]!
     952:	9e00      	ldr	r6, [sp, #0]
     954:	4770      	bx	lr

00000956 <Dictionary_144>:
     956:	00000966 	andeq	r0, r0, r6, ror #18
     95a:	72050020 	andvc	r0, r5, #32
     95e:	706f7264 	rsbvc	r7, pc, r4, ror #4

00000962 <Code_144>:
     962:	b001      	add	sp, #4
     964:	4770      	bx	lr

00000966 <Dictionary_145>:
     966:	0000097a 	andeq	r0, r0, sl, ror r9
     96a:	72050020 	andvc	r0, r5, #32
     96e:	6b636970 	blvs	18daf36 <BIT24+0x8daf36>

00000972 <Code_145>:
     972:	00b6      	lsls	r6, r6, #2
     974:	446e      	add	r6, sp
     976:	6836      	ldr	r6, [r6, #0]
     978:	4770      	bx	lr

0000097a <Dictionary_146>:
     97a:	00000990 	muleq	r0, r0, r9
     97e:	74040060 	strvc	r0, [r4], #-96	; 0x60
     982:	00657572 	rsbeq	r7, r5, r2, ror r5

00000986 <Code_146>:
     986:	f847 6d04 	str.w	r6, [r7, #-4]!
     98a:	2600      	movs	r6, #0
     98c:	43f6      	mvns	r6, r6
     98e:	4770      	bx	lr

00000990 <Dictionary_148>:
     990:	000009a4 	andeq	r0, r0, r4, lsr #19
     994:	66050060 	strvs	r0, [r5], -r0, rrx
     998:	65736c61 	ldrbvs	r6, [r3, #-3169]!	; 0xc61

0000099c <Code_148>:
     99c:	f847 6d04 	str.w	r6, [r7, #-4]!
     9a0:	2600      	movs	r6, #0
     9a2:	4770      	bx	lr

000009a4 <Dictionary_150>:
     9a4:	000009ba 			; <UNDEFINED> instruction: 0x000009ba
     9a8:	6103006e 	tstvs	r3, lr, rrx
     9ac:	cf01646e 	svcgt	0x0001646e

000009ae <Code_150>:
     9ae:	cf01      	ldmia	r7!, {r0}
     9b0:	4006      	ands	r6, r0
     9b2:	4770      	bx	lr
     9b4:	4006      	ands	r6, r0
     9b6:	f0160600 			; <UNDEFINED> instruction: 0xf0160600

000009ba <Dictionary_151>:
     9ba:	000009d2 	ldrdeq	r0, [r0], -r2
     9be:	6203006e 	andvs	r0, r3, #110	; 0x6e
     9c2:	cf016369 	svcgt	0x00016369

000009c4 <Code_151>:
     9c4:	cf01      	ldmia	r7!, {r0}
     9c6:	43b0      	bics	r0, r6
     9c8:	0006      	movs	r6, r0
     9ca:	4770      	bx	lr
     9cc:	4386      	bics	r6, r0
     9ce:	f0360600 			; <UNDEFINED> instruction: 0xf0360600

000009d2 <Dictionary_152>:
     9d2:	000009e8 	andeq	r0, r0, r8, ror #19
     9d6:	6f02006e 	svcvs	0x0002006e
     9da:	cf010072 	svcgt	0x00010072

000009dc <Code_152>:
     9dc:	cf01      	ldmia	r7!, {r0}
     9de:	4306      	orrs	r6, r0
     9e0:	4770      	bx	lr
     9e2:	4306      	orrs	r6, r0
     9e4:	f0560600 			; <UNDEFINED> instruction: 0xf0560600

000009e8 <Dictionary_153>:
     9e8:	000009fe 	strdeq	r0, [r0], -lr
     9ec:	7803006e 	stmdavc	r3, {r1, r2, r3, r5, r6}
     9f0:	cf01726f 	svcgt	0x0001726f

000009f2 <Code_153>:
     9f2:	cf01      	ldmia	r7!, {r0}
     9f4:	4046      	eors	r6, r0
     9f6:	4770      	bx	lr
     9f8:	4046      	eors	r6, r0
     9fa:	f0960600 			; <UNDEFINED> instruction: 0xf0960600

000009fe <Dictionary_154>:
     9fe:	00000a0c 	andeq	r0, r0, ip, lsl #20
     a02:	6e030061 	cdpvs	0, 0, cr0, cr3, cr1, {3}
     a06:	43f6746f 	mvnsmi	r7, #1862270976	; 0x6f000000

00000a08 <Code_154>:
     a08:	43f6      	mvns	r6, r6
     a0a:	4770      	bx	lr

00000a0c <Dictionary_155>:
     a0c:	00000a1c 	andeq	r0, r0, ip, lsl sl
     a10:	63030061 	movwvs	r0, #12385	; 0x3061
     a14:	fab67a6c 	blx	fed9f3cc <BIT31+0x7ed9f3cc>

00000a16 <Code_155>:
     a16:	fab6 f686 	clz	r6, r6
     a1a:	4770      	bx	lr

00000a1c <Dictionary_156>:
     a1c:	00000a2a 	andeq	r0, r0, sl, lsr #20
     a20:	73030061 	movwvc	r0, #12385	; 0x3061
     a24:	08767268 	ldmdaeq	r6!, {r3, r5, r6, r9, ip, sp, lr}^

00000a26 <Code_156>:
     a26:	0876      	lsrs	r6, r6, #1
     a28:	4770      	bx	lr

00000a2a <Dictionary_157>:
     a2a:	00000a38 	andeq	r0, r0, r8, lsr sl
     a2e:	73030061 	movwvc	r0, #12385	; 0x3061
     a32:	00766c68 	rsbseq	r6, r6, r8, ror #24

00000a34 <Code_157>:
     a34:	0076      	lsls	r6, r6, #1
     a36:	4770      	bx	lr

00000a38 <Dictionary_158>:
     a38:	00000a48 	andeq	r0, r0, r8, asr #20
     a3c:	72030061 	andvc	r0, r3, #97	; 0x61
     a40:	ea5f726f 	b	17dd404 <BIT24+0x7dd404>

00000a42 <Code_158>:
     a42:	ea5f 0676 	movs.w	r6, r6, ror #1
     a46:	4770      	bx	lr

00000a48 <Dictionary_159>:
     a48:	00000a5a 	andeq	r0, r0, sl, asr sl
     a4c:	72030061 	andvc	r0, r3, #97	; 0x61
     a50:	19b66c6f 	ldmibne	r6!, {r0, r1, r2, r3, r5, r6, sl, fp, sp, lr}

00000a52 <Code_159>:
     a52:	19b6      	adds	r6, r6, r6
     a54:	f156 0600 	adcs.w	r6, r6, #0
     a58:	4770      	bx	lr

00000a5a <Dictionary_160>:
     a5a:	00000a74 	andeq	r0, r0, r4, ror sl
     a5e:	7206006c 	andvc	r0, r6, #108	; 0x6c
     a62:	66696873 			; <UNDEFINED> instruction: 0x66696873
     a66:	cf010074 	svcgt	0x00010074

00000a68 <Code_160>:
     a68:	cf01      	ldmia	r7!, {r0}
     a6a:	40f0      	lsrs	r0, r6
     a6c:	0006      	movs	r6, r0
     a6e:	4770      	bx	lr
     a70:	26000836 			; <UNDEFINED> instruction: 0x26000836

00000a74 <Dictionary_161>:
     a74:	00000a8e 	andeq	r0, r0, lr, lsl #21
     a78:	6107006c 	tstvs	r7, ip, rrx
     a7c:	69687372 	stmdbvs	r8!, {r1, r4, r5, r6, r8, r9, ip, sp, lr}^
     a80:	cf017466 	svcgt	0x00017466

00000a82 <Code_161>:
     a82:	cf01      	ldmia	r7!, {r0}
     a84:	4130      	asrs	r0, r6
     a86:	0006      	movs	r6, r0
     a88:	4770      	bx	lr
     a8a:	17f61036 			; <UNDEFINED> instruction: 0x17f61036

00000a8e <Dictionary_162>:
     a8e:	00000aa8 	andeq	r0, r0, r8, lsr #21
     a92:	6c06006c 	stcvs	0, cr0, [r6], {108}	; 0x6c
     a96:	66696873 			; <UNDEFINED> instruction: 0x66696873
     a9a:	cf010074 	svcgt	0x00010074

00000a9c <Code_162>:
     a9c:	cf01      	ldmia	r7!, {r0}
     a9e:	40b0      	lsls	r0, r6
     aa0:	0006      	movs	r6, r0
     aa2:	4770      	bx	lr
     aa4:	26000036 			; <UNDEFINED> instruction: 0x26000036

00000aa8 <Dictionary_163>:
     aa8:	00000ab8 			; <UNDEFINED> instruction: 0x00000ab8
     aac:	30020061 	andcc	r0, r2, r1, rrx
     ab0:	3e01003d 	mcrcc	0, 0, r0, cr1, cr13, {1}

00000ab2 <Code_163>:
     ab2:	3e01      	subs	r6, #1
     ab4:	41b6      	sbcs	r6, r6
     ab6:	4770      	bx	lr

00000ab8 <Dictionary_164>:
     ab8:	00000aca 	andeq	r0, r0, sl, asr #21
     abc:	30030061 	andcc	r0, r3, r1, rrx
     ac0:	3e013e3c 	mcrcc	14, 0, r3, cr1, cr12, {1}

00000ac2 <Code_164>:
     ac2:	3e01      	subs	r6, #1
     ac4:	41b6      	sbcs	r6, r6
     ac6:	43f6      	mvns	r6, r6
     ac8:	4770      	bx	lr

00000aca <Dictionary_165>:
     aca:	00000ad8 	ldrdeq	r0, [r0], -r8
     ace:	30020061 	andcc	r0, r2, r1, rrx
     ad2:	17f6003c 			; <UNDEFINED> instruction: 0x17f6003c

00000ad4 <Code_165>:
     ad4:	17f6      	asrs	r6, r6, #31
     ad6:	4770      	bx	lr

00000ad8 <Dictionary_166>:
     ad8:	00000af0 	strdeq	r0, [r0], -r0	; <UNPREDICTABLE>
     adc:	3e020042 	cdpcc	0, 0, cr0, cr2, cr2, {2}
     ae0:	cf01003d 	svcgt	0x0001003d

00000ae2 <Code_166>:
     ae2:	cf01      	ldmia	r7!, {r0}
     ae4:	42b0      	cmp	r0, r6
     ae6:	bfb4      	ite	lt
     ae8:	2600      	movlt	r6, #0
     aea:	f04f 36ff 	movge.w	r6, #4294967295
     aee:	4770      	bx	lr

00000af0 <Dictionary_167>:
     af0:	00000b08 	andeq	r0, r0, r8, lsl #22
     af4:	3c020042 	stccc	0, cr0, [r2], {66}	; 0x42
     af8:	cf01003d 	svcgt	0x0001003d

00000afa <Code_167>:
     afa:	cf01      	ldmia	r7!, {r0}
     afc:	42b0      	cmp	r0, r6
     afe:	bfcc      	ite	gt
     b00:	2600      	movgt	r6, #0
     b02:	f04f 36ff 	movle.w	r6, #4294967295
     b06:	4770      	bx	lr

00000b08 <Dictionary_168>:
     b08:	00000b1e 	andeq	r0, r0, lr, lsl fp
     b0c:	3c010042 	stccc	0, cr0, [r1], {66}	; 0x42

00000b10 <Code_168>:
     b10:	cf01      	ldmia	r7!, {r0}
     b12:	42b0      	cmp	r0, r6
     b14:	bfb4      	ite	lt
     b16:	f04f 36ff 	movlt.w	r6, #4294967295
     b1a:	2600      	movge	r6, #0
     b1c:	4770      	bx	lr

00000b1e <Dictionary_169>:
     b1e:	00000b34 	andeq	r0, r0, r4, lsr fp
     b22:	3e010042 	cdpcc	0, 0, cr0, cr1, cr2, {2}

00000b26 <Code_169>:
     b26:	cf01      	ldmia	r7!, {r0}
     b28:	42b0      	cmp	r0, r6
     b2a:	bfcc      	ite	gt
     b2c:	f04f 36ff 	movgt.w	r6, #4294967295
     b30:	2600      	movle	r6, #0
     b32:	4770      	bx	lr

00000b34 <Dictionary_170>:
     b34:	00000b48 	andeq	r0, r0, r8, asr #22
     b38:	75030062 	strvc	r0, [r3, #-98]	; 0x62
     b3c:	cf013d3e 	svcgt	0x00013d3e

00000b3e <Code_170>:
     b3e:	cf01      	ldmia	r7!, {r0}
     b40:	1b86      	subs	r6, r0, r6
     b42:	41b6      	sbcs	r6, r6
     b44:	43f6      	mvns	r6, r6
     b46:	4770      	bx	lr

00000b48 <Dictionary_171>:
     b48:	00000b5c 	andeq	r0, r0, ip, asr fp
     b4c:	75030062 	strvc	r0, [r3, #-98]	; 0x62
     b50:	cf013d3c 	svcgt	0x00013d3c

00000b52 <Code_171>:
     b52:	cf01      	ldmia	r7!, {r0}
     b54:	1a36      	subs	r6, r6, r0
     b56:	41b6      	sbcs	r6, r6
     b58:	43f6      	mvns	r6, r6
     b5a:	4770      	bx	lr

00000b5c <Dictionary_172>:
     b5c:	00000b6e 	andeq	r0, r0, lr, ror #22
     b60:	75020062 	strvc	r0, [r2, #-98]	; 0x62
     b64:	cf01003c 	svcgt	0x0001003c

00000b66 <Code_172>:
     b66:	cf01      	ldmia	r7!, {r0}
     b68:	1b86      	subs	r6, r0, r6
     b6a:	41b6      	sbcs	r6, r6
     b6c:	4770      	bx	lr

00000b6e <Dictionary_173>:
     b6e:	00000b80 	andeq	r0, r0, r0, lsl #23
     b72:	75020062 	strvc	r0, [r2, #-98]	; 0x62
     b76:	cf01003e 	svcgt	0x0001003e

00000b78 <Code_173>:
     b78:	cf01      	ldmia	r7!, {r0}
     b7a:	1a36      	subs	r6, r6, r0
     b7c:	41b6      	sbcs	r6, r6
     b7e:	4770      	bx	lr

00000b80 <Dictionary_174>:
     b80:	00000b96 	muleq	r0, r6, fp
     b84:	3c02006b 	stccc	0, cr0, [r2], {107}	; 0x6b
     b88:	cf01003e 	svcgt	0x0001003e

00000b8a <Code_174>:
     b8a:	cf01      	ldmia	r7!, {r0}
     b8c:	1a36      	subs	r6, r6, r0
     b8e:	bf18      	it	ne
     b90:	f04f 36ff 	movne.w	r6, #4294967295
     b94:	4770      	bx	lr

00000b96 <Dictionary_175>:
     b96:	00000ba8 	andeq	r0, r0, r8, lsr #23
     b9a:	3d01006b 	stccc	0, cr0, [r1, #-428]	; 0xfffffe54

00000b9e <Code_175>:
     b9e:	cf01      	ldmia	r7!, {r0}
     ba0:	1a36      	subs	r6, r6, r0
     ba2:	3e01      	subs	r6, #1
     ba4:	41b6      	sbcs	r6, r6
     ba6:	4770      	bx	lr

00000ba8 <Dictionary_176>:
     ba8:	00000bbc 			; <UNDEFINED> instruction: 0x00000bbc
     bac:	6d030062 	stcvs	0, cr0, [r3, #-392]	; 0xfffffe78
     bb0:	cf016e69 	svcgt	0x00016e69

00000bb2 <Code_176>:
     bb2:	cf01      	ldmia	r7!, {r0}
     bb4:	42b0      	cmp	r0, r6
     bb6:	bfb8      	it	lt
     bb8:	4606      	movlt	r6, r0
     bba:	4770      	bx	lr

00000bbc <Dictionary_177>:
     bbc:	00000bd0 	ldrdeq	r0, [r0], -r0	; <UNPREDICTABLE>
     bc0:	6d030062 	stcvs	0, cr0, [r3, #-392]	; 0xfffffe78
     bc4:	cf017861 	svcgt	0x00017861

00000bc6 <Code_177>:
     bc6:	cf01      	ldmia	r7!, {r0}
     bc8:	42b0      	cmp	r0, r6
     bca:	bfc8      	it	gt
     bcc:	4606      	movgt	r6, r0
     bce:	4770      	bx	lr

00000bd0 <Dictionary_178>:
     bd0:	00000be6 	andeq	r0, r0, r6, ror #23
     bd4:	75040062 	strvc	r0, [r4, #-98]	; 0x62
     bd8:	0078616d 	rsbseq	r6, r8, sp, ror #2

00000bdc <Code_178>:
     bdc:	cf01      	ldmia	r7!, {r0}
     bde:	42b0      	cmp	r0, r6
     be0:	bf88      	it	hi
     be2:	4606      	movhi	r6, r0
     be4:	4770      	bx	lr

00000be6 <Dictionary_179>:
     be6:	00000c04 	andeq	r0, r0, r4, lsl #24
     bea:	75040062 	strvc	r0, [r4, #-98]	; 0x62
     bee:	006e696d 	rsbeq	r6, lr, sp, ror #18

00000bf2 <Code_179>:
     bf2:	cf01      	ldmia	r7!, {r0}
     bf4:	42b0      	cmp	r0, r6
     bf6:	bf38      	it	cc
     bf8:	4606      	movcc	r6, r0
     bfa:	4770      	bx	lr
     bfc:	20000230 	andcs	r0, r0, r0, lsr r2
     c00:	20000330 	andcs	r0, r0, r0, lsr r3

00000c04 <Dictionary_180>:
     c04:	00000c42 	andeq	r0, r0, r2, asr #24
     c08:	6d040000 	stcvs	0, cr0, [r4, #-0]
     c0c:	0065766f 	rsbeq	r7, r5, pc, ror #12

00000c10 <Code_180>:
     c10:	b507      	push	{r0, r1, r2, lr}
     c12:	0031      	movs	r1, r6
     c14:	cf40      	ldmia	r7!, {r6}
     c16:	0032      	movs	r2, r6
     c18:	cf40      	ldmia	r7!, {r6}
     c1a:	2900      	cmp	r1, #0
     c1c:	d00f      	beq.n	c3e <Code_180+0x2e>
     c1e:	42b2      	cmp	r2, r6
     c20:	d00d      	beq.n	c3e <Code_180+0x2e>
     c22:	d306      	bcc.n	c32 <Code_180+0x22>
     c24:	3e01      	subs	r6, #1
     c26:	3a01      	subs	r2, #1
     c28:	5c70      	ldrb	r0, [r6, r1]
     c2a:	5450      	strb	r0, [r2, r1]
     c2c:	3901      	subs	r1, #1
     c2e:	d1fb      	bne.n	c28 <Code_180+0x18>
     c30:	e005      	b.n	c3e <Code_180+0x2e>
     c32:	7830      	ldrb	r0, [r6, #0]
     c34:	7010      	strb	r0, [r2, #0]
     c36:	3601      	adds	r6, #1
     c38:	3201      	adds	r2, #1
     c3a:	3901      	subs	r1, #1
     c3c:	d1f9      	bne.n	c32 <Code_180+0x22>
     c3e:	cf40      	ldmia	r7!, {r6}
     c40:	bd07      	pop	{r0, r1, r2, pc}

00000c42 <Dictionary_184>:
     c42:	00000c64 	andeq	r0, r0, r4, ror #24
     c46:	66040000 	strvs	r0, [r4], -r0
     c4a:	006c6c69 	rsbeq	r6, ip, r9, ror #24

00000c4e <Code_184>:
     c4e:	0030      	movs	r0, r6
     c50:	cf40      	ldmia	r7!, {r6}
     c52:	0031      	movs	r1, r6
     c54:	cf40      	ldmia	r7!, {r6}
     c56:	2900      	cmp	r1, #0
     c58:	d002      	beq.n	c60 <Code_184+0x12>
     c5a:	3901      	subs	r1, #1
     c5c:	5470      	strb	r0, [r6, r1]
     c5e:	d1fc      	bne.n	c5a <Code_184+0xc>
     c60:	cf40      	ldmia	r7!, {r6}
     c62:	4770      	bx	lr

00000c64 <Dictionary_188>:
     c64:	00000c70 	andeq	r0, r0, r0, ror ip
     c68:	40010020 	andmi	r0, r1, r0, lsr #32

00000c6c <Code_188>:
     c6c:	6836      	ldr	r6, [r6, #0]
     c6e:	4770      	bx	lr

00000c70 <Dictionary_189>:
     c70:	00000c88 	andeq	r0, r0, r8, lsl #25
     c74:	2101006d 	tstcs	r1, sp, rrx

00000c78 <Code_189>:
     c78:	cf03      	ldmia	r7!, {r0, r1}
     c7a:	6030      	str	r0, [r6, #0]
     c7c:	000e      	movs	r6, r1
     c7e:	4770      	bx	lr
     c80:	6006      	str	r6, [r0, #0]
     c82:	4770      	bx	lr
     c84:	6001      	str	r1, [r0, #0]
     c86:	4770      	bx	lr

00000c88 <Dictionary_190>:
     c88:	00000cae 	andeq	r0, r0, lr, lsr #25
     c8c:	2b02006d 	blcs	80e48 <BIT19+0xe48>
     c90:	cf030021 	svcgt	0x00030021

00000c92 <Code_190>:
     c92:	cf03      	ldmia	r7!, {r0, r1}
     c94:	6832      	ldr	r2, [r6, #0]
     c96:	1812      	adds	r2, r2, r0
     c98:	6032      	str	r2, [r6, #0]
     c9a:	000e      	movs	r6, r1
     c9c:	4770      	bx	lr
     c9e:	6802      	ldr	r2, [r0, #0]
     ca0:	1992      	adds	r2, r2, r6
     ca2:	6002      	str	r2, [r0, #0]
     ca4:	4770      	bx	lr
     ca6:	6802      	ldr	r2, [r0, #0]
     ca8:	1852      	adds	r2, r2, r1
     caa:	6002      	str	r2, [r0, #0]
     cac:	4770      	bx	lr

00000cae <Dictionary_191>:
     cae:	00000cbc 			; <UNDEFINED> instruction: 0x00000cbc
     cb2:	68020020 	stmdavs	r2, {r5}
     cb6:	88360040 	ldmdahi	r6!, {r6}

00000cb8 <Code_191>:
     cb8:	8836      	ldrh	r6, [r6, #0]
     cba:	4770      	bx	lr

00000cbc <Dictionary_192>:
     cbc:	00000cd6 	ldrdeq	r0, [r0], -r6
     cc0:	6802006d 	stmdavs	r2, {r0, r2, r3, r5, r6}
     cc4:	cf030021 	svcgt	0x00030021

00000cc6 <Code_192>:
     cc6:	cf03      	ldmia	r7!, {r0, r1}
     cc8:	8030      	strh	r0, [r6, #0]
     cca:	000e      	movs	r6, r1
     ccc:	4770      	bx	lr
     cce:	8006      	strh	r6, [r0, #0]
     cd0:	4770      	bx	lr
     cd2:	8001      	strh	r1, [r0, #0]
     cd4:	4770      	bx	lr

00000cd6 <Dictionary_193>:
     cd6:	00000cfc 	strdeq	r0, [r0], -ip
     cda:	6803006d 	stmdavs	r3, {r0, r2, r3, r5, r6}
     cde:	cf03212b 	svcgt	0x0003212b

00000ce0 <Code_193>:
     ce0:	cf03      	ldmia	r7!, {r0, r1}
     ce2:	8832      	ldrh	r2, [r6, #0]
     ce4:	1812      	adds	r2, r2, r0
     ce6:	8032      	strh	r2, [r6, #0]
     ce8:	000e      	movs	r6, r1
     cea:	4770      	bx	lr
     cec:	8802      	ldrh	r2, [r0, #0]
     cee:	1992      	adds	r2, r2, r6
     cf0:	8002      	strh	r2, [r0, #0]
     cf2:	4770      	bx	lr
     cf4:	8802      	ldrh	r2, [r0, #0]
     cf6:	1852      	adds	r2, r2, r1
     cf8:	8002      	strh	r2, [r0, #0]
     cfa:	4770      	bx	lr

00000cfc <Dictionary_194>:
     cfc:	00000d0a 	andeq	r0, r0, sl, lsl #26
     d00:	63020020 	movwvs	r0, #8224	; 0x2020
     d04:	78360040 	ldmdavc	r6!, {r6}

00000d06 <Code_194>:
     d06:	7836      	ldrb	r6, [r6, #0]
     d08:	4770      	bx	lr

00000d0a <Dictionary_195>:
     d0a:	00000d24 	andeq	r0, r0, r4, lsr #26
     d0e:	6302006d 	movwvs	r0, #8301	; 0x206d
     d12:	cf030021 	svcgt	0x00030021

00000d14 <Code_195>:
     d14:	cf03      	ldmia	r7!, {r0, r1}
     d16:	7030      	strb	r0, [r6, #0]
     d18:	000e      	movs	r6, r1
     d1a:	4770      	bx	lr
     d1c:	7006      	strb	r6, [r0, #0]
     d1e:	4770      	bx	lr
     d20:	7001      	strb	r1, [r0, #0]
     d22:	4770      	bx	lr

00000d24 <Dictionary_196>:
     d24:	00000d4a 	andeq	r0, r0, sl, asr #26
     d28:	6303006d 	movwvs	r0, #12397	; 0x306d
     d2c:	cf03212b 	svcgt	0x0003212b

00000d2e <Code_196>:
     d2e:	cf03      	ldmia	r7!, {r0, r1}
     d30:	7832      	ldrb	r2, [r6, #0]
     d32:	1812      	adds	r2, r2, r0
     d34:	7032      	strb	r2, [r6, #0]
     d36:	000e      	movs	r6, r1
     d38:	4770      	bx	lr
     d3a:	7802      	ldrb	r2, [r0, #0]
     d3c:	1992      	adds	r2, r2, r6
     d3e:	7002      	strb	r2, [r0, #0]
     d40:	4770      	bx	lr
     d42:	7802      	ldrb	r2, [r0, #0]
     d44:	1852      	adds	r2, r2, r1
     d46:	7002      	strb	r2, [r0, #0]
     d48:	4770      	bx	lr

00000d4a <Dictionary_197>:
     d4a:	00000d72 	andeq	r0, r0, r2, ror sp
     d4e:	6204006d 	andvs	r0, r4, #109	; 0x6d
     d52:	00217369 	eoreq	r7, r1, r9, ror #6

00000d56 <Code_197>:
     d56:	cf03      	ldmia	r7!, {r0, r1}
     d58:	6832      	ldr	r2, [r6, #0]
     d5a:	4302      	orrs	r2, r0
     d5c:	6032      	str	r2, [r6, #0]
     d5e:	000e      	movs	r6, r1
     d60:	4770      	bx	lr
     d62:	6802      	ldr	r2, [r0, #0]
     d64:	4332      	orrs	r2, r6
     d66:	6002      	str	r2, [r0, #0]
     d68:	4770      	bx	lr
     d6a:	6802      	ldr	r2, [r0, #0]
     d6c:	430a      	orrs	r2, r1
     d6e:	6002      	str	r2, [r0, #0]
     d70:	4770      	bx	lr

00000d72 <Dictionary_198>:
     d72:	00000d9a 	muleq	r0, sl, sp
     d76:	6204006d 	andvs	r0, r4, #109	; 0x6d
     d7a:	00216369 	eoreq	r6, r1, r9, ror #6

00000d7e <Code_198>:
     d7e:	cf03      	ldmia	r7!, {r0, r1}
     d80:	6832      	ldr	r2, [r6, #0]
     d82:	4382      	bics	r2, r0
     d84:	6032      	str	r2, [r6, #0]
     d86:	000e      	movs	r6, r1
     d88:	4770      	bx	lr
     d8a:	6802      	ldr	r2, [r0, #0]
     d8c:	43b2      	bics	r2, r6
     d8e:	6002      	str	r2, [r0, #0]
     d90:	4770      	bx	lr
     d92:	6802      	ldr	r2, [r0, #0]
     d94:	438a      	bics	r2, r1
     d96:	6002      	str	r2, [r0, #0]
     d98:	4770      	bx	lr

00000d9a <Dictionary_199>:
     d9a:	00000dc2 	andeq	r0, r0, r2, asr #27
     d9e:	7804006d 	stmdavc	r4, {r0, r2, r3, r5, r6}
     da2:	0021726f 	eoreq	r7, r1, pc, ror #4

00000da6 <Code_199>:
     da6:	cf03      	ldmia	r7!, {r0, r1}
     da8:	6832      	ldr	r2, [r6, #0]
     daa:	4042      	eors	r2, r0
     dac:	6032      	str	r2, [r6, #0]
     dae:	000e      	movs	r6, r1
     db0:	4770      	bx	lr
     db2:	6802      	ldr	r2, [r0, #0]
     db4:	4072      	eors	r2, r6
     db6:	6002      	str	r2, [r0, #0]
     db8:	4770      	bx	lr
     dba:	6802      	ldr	r2, [r0, #0]
     dbc:	404a      	eors	r2, r1
     dbe:	6002      	str	r2, [r0, #0]
     dc0:	4770      	bx	lr

00000dc2 <Dictionary_200>:
     dc2:	00000e2c 	andeq	r0, r0, ip, lsr #28
     dc6:	62040068 	andvs	r0, r4, #104	; 0x68
     dca:	00407469 	subeq	r7, r0, r9, ror #8

00000dce <Code_200>:
     dce:	cf01      	ldmia	r7!, {r0}
     dd0:	6836      	ldr	r6, [r6, #0]

00000dd2 <struktur_bitfetch>:
     dd2:	4006      	ands	r6, r0
     dd4:	bf18      	it	ne
     dd6:	f04f 36ff 	movne.w	r6, #4294967295
     dda:	4770      	bx	lr
     ddc:	f8df 2404 	ldr.w	r2, [pc, #1028]	; 11e4 <Code_235+0xf8>

00000de0 <bitfetch_opcoding>:
     de0:	b500      	push	{lr}
     de2:	2b01      	cmp	r3, #1
     de4:	d10a      	bne.n	dfc <bitfetch_opcoding+0x1c>
     de6:	f847 6d04 	str.w	r6, [r7, #-4]!
     dea:	2600      	movs	r6, #0
     dec:	f000 ff56 	bl	1c9c <Code_431>
     df0:	f847 6d04 	str.w	r6, [r7, #-4]!
     df4:	0016      	movs	r6, r2
     df6:	f001 faa9 	bl	234c <Code_559>
     dfa:	e011      	b.n	e20 <bitfetch_opcoding+0x40>
     dfc:	cf02      	ldmia	r7!, {r1}
     dfe:	3b01      	subs	r3, #1
     e00:	f002 fc0d 	bl	361e <konstantenschreiben>
     e04:	f847 6d04 	str.w	r6, [r7, #-4]!
     e08:	2636      	movs	r6, #54	; 0x36
     e0a:	4316      	orrs	r6, r2
     e0c:	f001 fa9e 	bl	234c <Code_559>
     e10:	f847 6d04 	str.w	r6, [r7, #-4]!
     e14:	000e      	movs	r6, r1
     e16:	f847 6d04 	str.w	r6, [r7, #-4]!
     e1a:	2600      	movs	r6, #0
     e1c:	f000 ff3e 	bl	1c9c <Code_431>
     e20:	f847 6d04 	str.w	r6, [r7, #-4]!
     e24:	4ef0      	ldr	r6, [pc, #960]	; (11e8 <Code_235+0xfc>)
     e26:	f001 f86d 	bl	1f04 <Code_474>
     e2a:	bd00      	pop	{pc}

00000e2c <Dictionary_212>:
     e2c:	00000e54 	andeq	r0, r0, r4, asr lr
     e30:	6805006d 	stmdavs	r5, {r0, r2, r3, r5, r6}
     e34:	21736962 	cmncs	r3, r2, ror #18

00000e38 <Code_212>:
     e38:	cf03      	ldmia	r7!, {r0, r1}
     e3a:	8832      	ldrh	r2, [r6, #0]
     e3c:	4302      	orrs	r2, r0
     e3e:	8032      	strh	r2, [r6, #0]
     e40:	000e      	movs	r6, r1
     e42:	4770      	bx	lr
     e44:	8802      	ldrh	r2, [r0, #0]
     e46:	4332      	orrs	r2, r6
     e48:	8002      	strh	r2, [r0, #0]
     e4a:	4770      	bx	lr
     e4c:	8802      	ldrh	r2, [r0, #0]
     e4e:	430a      	orrs	r2, r1
     e50:	8002      	strh	r2, [r0, #0]
     e52:	4770      	bx	lr

00000e54 <Dictionary_213>:
     e54:	00000e7c 	andeq	r0, r0, ip, ror lr
     e58:	6805006d 	stmdavs	r5, {r0, r2, r3, r5, r6}
     e5c:	21636962 	cmncs	r3, r2, ror #18

00000e60 <Code_213>:
     e60:	cf03      	ldmia	r7!, {r0, r1}
     e62:	8832      	ldrh	r2, [r6, #0]
     e64:	4382      	bics	r2, r0
     e66:	8032      	strh	r2, [r6, #0]
     e68:	000e      	movs	r6, r1
     e6a:	4770      	bx	lr
     e6c:	8802      	ldrh	r2, [r0, #0]
     e6e:	43b2      	bics	r2, r6
     e70:	8002      	strh	r2, [r0, #0]
     e72:	4770      	bx	lr
     e74:	8802      	ldrh	r2, [r0, #0]
     e76:	438a      	bics	r2, r1
     e78:	8002      	strh	r2, [r0, #0]
     e7a:	4770      	bx	lr

00000e7c <Dictionary_214>:
     e7c:	00000ea4 	andeq	r0, r0, r4, lsr #29
     e80:	6805006d 	stmdavs	r5, {r0, r2, r3, r5, r6}
     e84:	21726f78 	cmncs	r2, r8, ror pc

00000e88 <Code_214>:
     e88:	cf03      	ldmia	r7!, {r0, r1}
     e8a:	8832      	ldrh	r2, [r6, #0]
     e8c:	4042      	eors	r2, r0
     e8e:	8032      	strh	r2, [r6, #0]
     e90:	000e      	movs	r6, r1
     e92:	4770      	bx	lr
     e94:	8802      	ldrh	r2, [r0, #0]
     e96:	4072      	eors	r2, r6
     e98:	8002      	strh	r2, [r0, #0]
     e9a:	4770      	bx	lr
     e9c:	8802      	ldrh	r2, [r0, #0]
     e9e:	404a      	eors	r2, r1
     ea0:	8002      	strh	r2, [r0, #0]
     ea2:	4770      	bx	lr

00000ea4 <Dictionary_215>:
     ea4:	00000ec2 	andeq	r0, r0, r2, asr #29
     ea8:	68050068 	stmdavs	r5, {r3, r5, r6}
     eac:	40746962 	rsbsmi	r6, r4, r2, ror #18

00000eb0 <Code_215>:
     eb0:	cf01      	ldmia	r7!, {r0}
     eb2:	8836      	ldrh	r6, [r6, #0]
     eb4:	4006      	ands	r6, r0
     eb6:	bf18      	it	ne
     eb8:	f04f 36ff 	movne.w	r6, #4294967295
     ebc:	4770      	bx	lr
     ebe:	4acb      	ldr	r2, [pc, #812]	; (11ec <Code_235+0x100>)
     ec0:	e78e      	b.n	de0 <bitfetch_opcoding>

00000ec2 <Dictionary_216>:
     ec2:	00000eea 	andeq	r0, r0, sl, ror #29
     ec6:	6305006d 	movwvs	r0, #20589	; 0x506d
     eca:	21736962 	cmncs	r3, r2, ror #18

00000ece <Code_216>:
     ece:	cf03      	ldmia	r7!, {r0, r1}
     ed0:	7832      	ldrb	r2, [r6, #0]
     ed2:	4302      	orrs	r2, r0
     ed4:	7032      	strb	r2, [r6, #0]
     ed6:	000e      	movs	r6, r1
     ed8:	4770      	bx	lr
     eda:	7802      	ldrb	r2, [r0, #0]
     edc:	4332      	orrs	r2, r6
     ede:	7002      	strb	r2, [r0, #0]
     ee0:	4770      	bx	lr
     ee2:	7802      	ldrb	r2, [r0, #0]
     ee4:	430a      	orrs	r2, r1
     ee6:	7002      	strb	r2, [r0, #0]
     ee8:	4770      	bx	lr

00000eea <Dictionary_217>:
     eea:	00000f12 	andeq	r0, r0, r2, lsl pc
     eee:	6305006d 	movwvs	r0, #20589	; 0x506d
     ef2:	21636962 	cmncs	r3, r2, ror #18

00000ef6 <Code_217>:
     ef6:	cf03      	ldmia	r7!, {r0, r1}
     ef8:	7832      	ldrb	r2, [r6, #0]
     efa:	4382      	bics	r2, r0
     efc:	7032      	strb	r2, [r6, #0]
     efe:	000e      	movs	r6, r1
     f00:	4770      	bx	lr
     f02:	7802      	ldrb	r2, [r0, #0]
     f04:	43b2      	bics	r2, r6
     f06:	7002      	strb	r2, [r0, #0]
     f08:	4770      	bx	lr
     f0a:	7802      	ldrb	r2, [r0, #0]
     f0c:	438a      	bics	r2, r1
     f0e:	7002      	strb	r2, [r0, #0]
     f10:	4770      	bx	lr

00000f12 <Dictionary_218>:
     f12:	00000f3a 	andeq	r0, r0, sl, lsr pc
     f16:	6305006d 	movwvs	r0, #20589	; 0x506d
     f1a:	21726f78 	cmncs	r2, r8, ror pc

00000f1e <Code_218>:
     f1e:	cf03      	ldmia	r7!, {r0, r1}
     f20:	7832      	ldrb	r2, [r6, #0]
     f22:	4042      	eors	r2, r0
     f24:	7032      	strb	r2, [r6, #0]
     f26:	000e      	movs	r6, r1
     f28:	4770      	bx	lr
     f2a:	7802      	ldrb	r2, [r0, #0]
     f2c:	4072      	eors	r2, r6
     f2e:	7002      	strb	r2, [r0, #0]
     f30:	4770      	bx	lr
     f32:	7802      	ldrb	r2, [r0, #0]
     f34:	404a      	eors	r2, r1
     f36:	7002      	strb	r2, [r0, #0]
     f38:	4770      	bx	lr

00000f3a <Dictionary_219>:
     f3a:	00000f58 	andeq	r0, r0, r8, asr pc
     f3e:	63050068 	movwvs	r0, #20584	; 0x5068
     f42:	40746962 	rsbsmi	r6, r4, r2, ror #18

00000f46 <Code_219>:
     f46:	cf01      	ldmia	r7!, {r0}
     f48:	7836      	ldrb	r6, [r6, #0]
     f4a:	4006      	ands	r6, r0
     f4c:	bf18      	it	ne
     f4e:	f04f 36ff 	movne.w	r6, #4294967295
     f52:	4770      	bx	lr
     f54:	4aa6      	ldr	r2, [pc, #664]	; (11f0 <Code_235+0x104>)
     f56:	e743      	b.n	de0 <bitfetch_opcoding>

00000f58 <Dictionary_220>:
     f58:	00000f68 	andeq	r0, r0, r8, ror #30
     f5c:	63050061 	movwvs	r0, #20577	; 0x5061
     f60:	2b6c6c65 	blcs	1b1c0fc <BIT24+0xb1c0fc>

00000f64 <Code_220>:
     f64:	3604      	adds	r6, #4
     f66:	4770      	bx	lr

00000f68 <Dictionary_221>:
     f68:	00000f78 	andeq	r0, r0, r8, ror pc
     f6c:	63050061 	movwvs	r0, #20577	; 0x5061
     f70:	736c6c65 	cmnvc	ip, #25856	; 0x6500

00000f74 <Code_221>:
     f74:	00b6      	lsls	r6, r6, #2
     f76:	4770      	bx	lr

00000f78 <Dictionary_222>:
     f78:	0000100c 	andeq	r1, r0, ip
     f7c:	68070000 	stmdavs	r7, {}	; <UNPREDICTABLE>
     f80:	73616c66 	cmnvc	r1, #26112	; 0x6600
     f84:	00302168 	eorseq	r2, r0, r8, ror #2

00000f86 <Code_222>:
     f86:	0030      	movs	r0, r6
     f88:	cf40      	ldmia	r7!, {r6}
     f8a:	0031      	movs	r1, r6
     f8c:	cf40      	ldmia	r7!, {r6}
     f8e:	4b99      	ldr	r3, [pc, #612]	; (11f4 <Code_235+0x108>)
     f90:	4298      	cmp	r0, r3
     f92:	d321      	bcc.n	fd8 <Code_222+0x52>
     f94:	4b98      	ldr	r3, [pc, #608]	; (11f8 <Code_235+0x10c>)
     f96:	4298      	cmp	r0, r3
     f98:	d21e      	bcs.n	fd8 <Code_222+0x52>
     f9a:	4b98      	ldr	r3, [pc, #608]	; (11fc <Code_235+0x110>)
     f9c:	4019      	ands	r1, r3
     f9e:	4299      	cmp	r1, r3
     fa0:	d019      	beq.n	fd6 <Code_222+0x50>
     fa2:	f010 0201 	ands.w	r2, r0, #1
     fa6:	2a00      	cmp	r2, #0
     fa8:	d116      	bne.n	fd8 <Code_222+0x52>
     faa:	8802      	ldrh	r2, [r0, #0]
     fac:	429a      	cmp	r2, r3
     fae:	d113      	bne.n	fd8 <Code_222+0x52>
     fb0:	f110 6000 	adds.w	r0, r0, #134217728	; 0x8000000
     fb4:	4a92      	ldr	r2, [pc, #584]	; (1200 <Code_235+0x114>)
     fb6:	4b93      	ldr	r3, [pc, #588]	; (1204 <Code_235+0x118>)
     fb8:	6013      	str	r3, [r2, #0]
     fba:	4b93      	ldr	r3, [pc, #588]	; (1208 <Code_235+0x11c>)
     fbc:	6013      	str	r3, [r2, #0]
     fbe:	4a93      	ldr	r2, [pc, #588]	; (120c <Code_235+0x120>)
     fc0:	4b93      	ldr	r3, [pc, #588]	; (1210 <Code_235+0x124>)
     fc2:	6013      	str	r3, [r2, #0]
     fc4:	8001      	strh	r1, [r0, #0]
     fc6:	4a93      	ldr	r2, [pc, #588]	; (1214 <Code_235+0x128>)
     fc8:	6813      	ldr	r3, [r2, #0]
     fca:	f413 3380 	ands.w	r3, r3, #65536	; 0x10000
     fce:	d1fb      	bne.n	fc8 <Code_222+0x42>
     fd0:	4a8e      	ldr	r2, [pc, #568]	; (120c <Code_235+0x120>)
     fd2:	4b91      	ldr	r3, [pc, #580]	; (1218 <Code_235+0x12c>)
     fd4:	6013      	str	r3, [r2, #0]
     fd6:	4770      	bx	lr
     fd8:	f000 fc65 	bl	18a6 <dotgaensefuesschen>
     fdc:	6f72572a 	svcvs	0x0072572a
     fe0:	6120676e 	teqvs	r0, lr, ror #14
     fe4:	65726464 	ldrbvs	r6, [r2, #-1124]!	; 0x464
     fe8:	6f207373 	svcvs	0x00207373
     fec:	61642072 	smcvs	16898	; 0x4202
     ff0:	66206174 			; <UNDEFINED> instruction: 0x66206174
     ff4:	7720726f 	strvc	r7, [r0, -pc, ror #4]!
     ff8:	69746972 	ldmdbvs	r4!, {r1, r4, r5, r6, r8, fp, sp, lr}^
     ffc:	6620676e 	strtvs	r6, [r0], -lr, ror #14
    1000:	6873616c 	ldmdavs	r3!, {r2, r3, r5, r6, r8, sp, lr}^
    1004:	000a2120 	andeq	r2, sl, r0, lsr #2
    1008:	f002 bb30 	b.w	366c <Code_940>

0000100c <Dictionary_226>:
    100c:	00001064 	andeq	r1, r0, r4, rrx
    1010:	63070000 	movwvs	r0, #28672	; 0x7000
    1014:	73616c66 	cmnvc	r1, #26112	; 0x6600
    1018:	00302168 	eorseq	r2, r0, r8, ror #2

0000101a <Code_226>:
    101a:	0030      	movs	r0, r6
    101c:	cf40      	ldmia	r7!, {r6}
    101e:	0031      	movs	r1, r6
    1020:	cf40      	ldmia	r7!, {r6}
    1022:	4b74      	ldr	r3, [pc, #464]	; (11f4 <Code_235+0x108>)
    1024:	4298      	cmp	r0, r3
    1026:	d3d7      	bcc.n	fd8 <Code_222+0x52>
    1028:	4b73      	ldr	r3, [pc, #460]	; (11f8 <Code_235+0x10c>)
    102a:	4298      	cmp	r0, r3
    102c:	d2d4      	bcs.n	fd8 <Code_222+0x52>
    102e:	f011 01ff 	ands.w	r1, r1, #255	; 0xff
    1032:	29ff      	cmp	r1, #255	; 0xff
    1034:	d015      	beq.n	1062 <Code_226+0x48>
    1036:	7802      	ldrb	r2, [r0, #0]
    1038:	2aff      	cmp	r2, #255	; 0xff
    103a:	d1cd      	bne.n	fd8 <Code_222+0x52>
    103c:	f110 6000 	adds.w	r0, r0, #134217728	; 0x8000000
    1040:	4a6f      	ldr	r2, [pc, #444]	; (1200 <Code_235+0x114>)
    1042:	4b70      	ldr	r3, [pc, #448]	; (1204 <Code_235+0x118>)
    1044:	6013      	str	r3, [r2, #0]
    1046:	4b70      	ldr	r3, [pc, #448]	; (1208 <Code_235+0x11c>)
    1048:	6013      	str	r3, [r2, #0]
    104a:	4a70      	ldr	r2, [pc, #448]	; (120c <Code_235+0x120>)
    104c:	4b73      	ldr	r3, [pc, #460]	; (121c <Code_235+0x130>)
    104e:	6013      	str	r3, [r2, #0]
    1050:	7001      	strb	r1, [r0, #0]
    1052:	4a70      	ldr	r2, [pc, #448]	; (1214 <Code_235+0x128>)
    1054:	6813      	ldr	r3, [r2, #0]
    1056:	f413 3380 	ands.w	r3, r3, #65536	; 0x10000
    105a:	d1fb      	bne.n	1054 <Code_226+0x3a>
    105c:	4a6b      	ldr	r2, [pc, #428]	; (120c <Code_235+0x120>)
    105e:	4b6e      	ldr	r3, [pc, #440]	; (1218 <Code_235+0x12c>)
    1060:	6013      	str	r3, [r2, #0]
    1062:	4770      	bx	lr

00001064 <Dictionary_229>:
    1064:	000010da 	ldrdeq	r1, [r0], -sl
    1068:	65100000 	ldrvs	r0, [r0, #-0]
    106c:	65736172 	ldrbvs	r6, [r3, #-370]!	; 0x172
    1070:	73616c66 	cmnvc	r1, #26112	; 0x6600
    1074:	63657368 	cmnvs	r5, #104, 6	; 0xa0000001
    1078:	00726f74 	rsbseq	r6, r2, r4, ror pc

0000107c <Code_229>:
    107c:	b500      	push	{lr}
    107e:	2e01      	cmp	r6, #1
    1080:	d329      	bcc.n	10d6 <Code_229+0x5a>
    1082:	2e0c      	cmp	r6, #12
    1084:	d227      	bcs.n	10d6 <Code_229+0x5a>
    1086:	4a5e      	ldr	r2, [pc, #376]	; (1200 <Code_235+0x114>)
    1088:	4b5e      	ldr	r3, [pc, #376]	; (1204 <Code_235+0x118>)
    108a:	6013      	str	r3, [r2, #0]
    108c:	4b5e      	ldr	r3, [pc, #376]	; (1208 <Code_235+0x11c>)
    108e:	6013      	str	r3, [r2, #0]
    1090:	f000 fc09 	bl	18a6 <dotgaensefuesschen>
    1094:	6172450d 	cmnvs	r2, sp, lsl #10
    1098:	73206573 	teqvc	r0, #482344960	; 0x1cc00000
    109c:	6f746365 	svcvs	0x00746365
    10a0:	f8472072 			; <UNDEFINED> instruction: 0xf8472072
    10a4:	6d04      	ldr	r4, [r0, #80]	; 0x50
    10a6:	f002 f937 	bl	3318 <Code_878>
    10aa:	4a58      	ldr	r2, [pc, #352]	; (120c <Code_235+0x120>)
    10ac:	4b5c      	ldr	r3, [pc, #368]	; (1220 <Code_235+0x134>)
    10ae:	00f6      	lsls	r6, r6, #3
    10b0:	4333      	orrs	r3, r6
    10b2:	6013      	str	r3, [r2, #0]
    10b4:	4a57      	ldr	r2, [pc, #348]	; (1214 <Code_235+0x128>)
    10b6:	6813      	ldr	r3, [r2, #0]
    10b8:	f413 3380 	ands.w	r3, r3, #65536	; 0x10000
    10bc:	d1fb      	bne.n	10b6 <Code_229+0x3a>
    10be:	4a53      	ldr	r2, [pc, #332]	; (120c <Code_235+0x120>)
    10c0:	4b55      	ldr	r3, [pc, #340]	; (1218 <Code_235+0x12c>)
    10c2:	6013      	str	r3, [r2, #0]
    10c4:	f000 fbef 	bl	18a6 <dotgaensefuesschen>
    10c8:	6f72660c 	svcvs	0x0072660c
    10cc:	6c46206d 	mcrrvs	0, 6, r2, r6, cr13
    10d0:	2e687361 	cdpcs	3, 6, cr7, cr8, cr1, {3}
    10d4:	cf40000a 	svcgt	0x0040000a
    10d8:	bd00      	pop	{pc}

000010da <Dictionary_235>:
    10da:	0000125c 	andeq	r1, r0, ip, asr r2
    10de:	650a0000 	strvs	r0, [sl, #-0]
    10e2:	65736172 	ldrbvs	r6, [r3, #-370]!	; 0x172
    10e6:	73616c66 	cmnvc	r1, #26112	; 0x6600
    10ea:	b6720068 	ldrbtlt	r0, [r2], -r8, rrx

000010ec <Code_235>:
    10ec:	b672      	cpsid	i
    10ee:	b500      	push	{lr}
    10f0:	484c      	ldr	r0, [pc, #304]	; (1224 <Code_235+0x138>)
    10f2:	494d      	ldr	r1, [pc, #308]	; (1228 <Code_235+0x13c>)
    10f4:	6802      	ldr	r2, [r0, #0]
    10f6:	f1b2 3fff 	cmp.w	r2, #4294967295
    10fa:	d005      	beq.n	1108 <Code_235+0x1c>
    10fc:	f847 6d04 	str.w	r6, [r7, #-4]!
    1100:	2601      	movs	r6, #1
    1102:	f7ff ffbb 	bl	107c <Code_229>
    1106:	e002      	b.n	110e <Code_235+0x22>
    1108:	3004      	adds	r0, #4
    110a:	4288      	cmp	r0, r1
    110c:	d3f2      	bcc.n	10f4 <Code_235+0x8>
    110e:	4847      	ldr	r0, [pc, #284]	; (122c <Code_235+0x140>)
    1110:	4947      	ldr	r1, [pc, #284]	; (1230 <Code_235+0x144>)
    1112:	6802      	ldr	r2, [r0, #0]
    1114:	f1b2 3fff 	cmp.w	r2, #4294967295
    1118:	d005      	beq.n	1126 <Code_235+0x3a>
    111a:	f847 6d04 	str.w	r6, [r7, #-4]!
    111e:	2602      	movs	r6, #2
    1120:	f7ff ffac 	bl	107c <Code_229>
    1124:	e002      	b.n	112c <Code_235+0x40>
    1126:	3004      	adds	r0, #4
    1128:	4288      	cmp	r0, r1
    112a:	d3f2      	bcc.n	1112 <Code_235+0x26>
    112c:	4841      	ldr	r0, [pc, #260]	; (1234 <Code_235+0x148>)
    112e:	4942      	ldr	r1, [pc, #264]	; (1238 <Code_235+0x14c>)
    1130:	6802      	ldr	r2, [r0, #0]
    1132:	f1b2 3fff 	cmp.w	r2, #4294967295
    1136:	d005      	beq.n	1144 <Code_235+0x58>
    1138:	f847 6d04 	str.w	r6, [r7, #-4]!
    113c:	2603      	movs	r6, #3
    113e:	f7ff ff9d 	bl	107c <Code_229>
    1142:	e002      	b.n	114a <Code_235+0x5e>
    1144:	3004      	adds	r0, #4
    1146:	4288      	cmp	r0, r1
    1148:	d3f2      	bcc.n	1130 <Code_235+0x44>
    114a:	483c      	ldr	r0, [pc, #240]	; (123c <Code_235+0x150>)
    114c:	493c      	ldr	r1, [pc, #240]	; (1240 <Code_235+0x154>)
    114e:	6802      	ldr	r2, [r0, #0]
    1150:	f1b2 3fff 	cmp.w	r2, #4294967295
    1154:	d005      	beq.n	1162 <Code_235+0x76>
    1156:	f847 6d04 	str.w	r6, [r7, #-4]!
    115a:	2604      	movs	r6, #4
    115c:	f7ff ff8e 	bl	107c <Code_229>
    1160:	e002      	b.n	1168 <Code_235+0x7c>
    1162:	3004      	adds	r0, #4
    1164:	4288      	cmp	r0, r1
    1166:	d3f2      	bcc.n	114e <Code_235+0x62>
    1168:	4836      	ldr	r0, [pc, #216]	; (1244 <Code_235+0x158>)
    116a:	4937      	ldr	r1, [pc, #220]	; (1248 <Code_235+0x15c>)
    116c:	6802      	ldr	r2, [r0, #0]
    116e:	f1b2 3fff 	cmp.w	r2, #4294967295
    1172:	d005      	beq.n	1180 <Code_235+0x94>
    1174:	f847 6d04 	str.w	r6, [r7, #-4]!
    1178:	2605      	movs	r6, #5
    117a:	f7ff ff7f 	bl	107c <Code_229>
    117e:	e002      	b.n	1186 <Code_235+0x9a>
    1180:	3004      	adds	r0, #4
    1182:	4288      	cmp	r0, r1
    1184:	d3f2      	bcc.n	116c <Code_235+0x80>
    1186:	4831      	ldr	r0, [pc, #196]	; (124c <Code_235+0x160>)
    1188:	4931      	ldr	r1, [pc, #196]	; (1250 <Code_235+0x164>)
    118a:	6802      	ldr	r2, [r0, #0]
    118c:	f1b2 3fff 	cmp.w	r2, #4294967295
    1190:	d005      	beq.n	119e <Code_235+0xb2>
    1192:	f847 6d04 	str.w	r6, [r7, #-4]!
    1196:	2606      	movs	r6, #6
    1198:	f7ff ff70 	bl	107c <Code_229>
    119c:	e002      	b.n	11a4 <Code_235+0xb8>
    119e:	3004      	adds	r0, #4
    11a0:	4288      	cmp	r0, r1
    11a2:	d3f2      	bcc.n	118a <Code_235+0x9e>
    11a4:	482b      	ldr	r0, [pc, #172]	; (1254 <Code_235+0x168>)
    11a6:	492c      	ldr	r1, [pc, #176]	; (1258 <Code_235+0x16c>)
    11a8:	6802      	ldr	r2, [r0, #0]
    11aa:	f1b2 3fff 	cmp.w	r2, #4294967295
    11ae:	d005      	beq.n	11bc <Code_235+0xd0>
    11b0:	f847 6d04 	str.w	r6, [r7, #-4]!
    11b4:	2607      	movs	r6, #7
    11b6:	f7ff ff61 	bl	107c <Code_229>
    11ba:	e002      	b.n	11c2 <Code_235+0xd6>
    11bc:	3004      	adds	r0, #4
    11be:	4288      	cmp	r0, r1
    11c0:	d3f2      	bcc.n	11a8 <Code_235+0xbc>
    11c2:	f000 fb70 	bl	18a6 <dotgaensefuesschen>
    11c6:	6e694612 	mcrvs	6, 3, r4, cr9, cr2, {0}
    11ca:	65687369 	strbvs	r7, [r8, #-873]!	; 0x369
    11ce:	52202e64 	eorpl	r2, r0, #100, 28	; 0x640
    11d2:	74657365 	strbtvc	r7, [r5], #-869	; 0x365
    11d6:	000a2120 	andeq	r2, sl, r0, lsr #2
    11da:	f85d eb04 	ldr.w	lr, [sp], #4
    11de:	b662      	cpsie	i
    11e0:	f002 bbd7 	b.w	3992 <Restart>
    11e4:	00006800 	andeq	r6, r0, r0, lsl #16
    11e8:	00000dd2 	ldrdeq	r0, [r0], -r2
    11ec:	00008800 	andeq	r8, r0, r0, lsl #16
    11f0:	00007800 	andeq	r7, r0, r0, lsl #16
    11f4:	00004000 	andeq	r4, r0, r0
    11f8:	00080000 	andeq	r0, r8, r0
    11fc:	0000ffff 	strdeq	pc, [r0], -pc	; <UNPREDICTABLE>
    1200:	40023c04 	andmi	r3, r2, r4, lsl #24
    1204:	45670123 	strbmi	r0, [r7, #-291]!	; 0x123
    1208:	cdef89ab 	stclgt	9, cr8, [pc, #684]!	; 14bc <Dictionary_300+0x2>
    120c:	40023c10 	andmi	r3, r2, r0, lsl ip
    1210:	00000101 	andeq	r0, r0, r1, lsl #2
    1214:	40023c0c 	andmi	r3, r2, ip, lsl #24
    1218:	80000000 	andhi	r0, r0, r0
    121c:	00000001 	andeq	r0, r0, r1
    1220:	00010002 	andeq	r0, r1, r2
    1224:	08004000 	stmdaeq	r0, {lr}
    1228:	08007fff 	stmdaeq	r0, {r0, r1, r2, r3, r4, r5, r6, r7, r8, r9, sl, fp, ip, sp, lr}
    122c:	08008000 	stmdaeq	r0, {pc}
    1230:	0800bfff 	stmdaeq	r0, {r0, r1, r2, r3, r4, r5, r6, r7, r8, r9, sl, fp, ip, sp, pc}
    1234:	0800c000 	stmdaeq	r0, {lr, pc}
    1238:	0800ffff 	stmdaeq	r0, {r0, r1, r2, r3, r4, r5, r6, r7, r8, r9, sl, fp, ip, sp, lr, pc}
    123c:	08010000 	stmdaeq	r1, {}	; <UNPREDICTABLE>
    1240:	0801ffff 	stmdaeq	r1, {r0, r1, r2, r3, r4, r5, r6, r7, r8, r9, sl, fp, ip, sp, lr, pc}
    1244:	08020000 	stmdaeq	r2, {}	; <UNPREDICTABLE>
    1248:	0803ffff 	stmdaeq	r3, {r0, r1, r2, r3, r4, r5, r6, r7, r8, r9, sl, fp, ip, sp, lr, pc}
    124c:	08040000 	stmdaeq	r4, {}	; <UNPREDICTABLE>
    1250:	0805ffff 	stmdaeq	r5, {r0, r1, r2, r3, r4, r5, r6, r7, r8, r9, sl, fp, ip, sp, lr, pc}
    1254:	08060000 	stmdaeq	r6, {}	; <UNPREDICTABLE>
    1258:	0807ffff 	stmdaeq	r7, {r0, r1, r2, r3, r4, r5, r6, r7, r8, r9, sl, fp, ip, sp, lr, pc}

0000125c <Dictionary_258>:
    125c:	00001272 	andeq	r1, r0, r2, ror r2
    1260:	2b010069 	blcs	4140c <BIT18+0x140c>

00001264 <Code_258>:
    1264:	cf01      	ldmia	r7!, {r0}
    1266:	1836      	adds	r6, r6, r0
    1268:	4770      	bx	lr
    126a:	1836      	adds	r6, r6, r0
    126c:	3600      	adds	r6, #0
    126e:	f1160600 			; <UNDEFINED> instruction: 0xf1160600

00001272 <Dictionary_259>:
    1272:	00001288 	andeq	r1, r0, r8, lsl #5
    1276:	2d010069 	stccs	0, cr0, [r1, #-420]	; 0xfffffe5c

0000127a <Code_259>:
    127a:	cf01      	ldmia	r7!, {r0}
    127c:	1b86      	subs	r6, r0, r6
    127e:	4770      	bx	lr
    1280:	1a36      	subs	r6, r6, r0
    1282:	3e00      	subs	r6, #0
    1284:	f1b60600 			; <UNDEFINED> instruction: 0xf1b60600

00001288 <Dictionary_260>:
    1288:	00001296 	muleq	r0, r6, r2
    128c:	31020061 	tstcc	r2, r1, rrx
    1290:	3e01002d 	cdpcc	0, 0, cr0, cr1, cr13, {1}

00001292 <Code_260>:
    1292:	3e01      	subs	r6, #1
    1294:	4770      	bx	lr

00001296 <Dictionary_261>:
    1296:	000012a4 	andeq	r1, r0, r4, lsr #5
    129a:	31020061 	tstcc	r2, r1, rrx
    129e:	3601002b 	strcc	r0, [r1], -fp, lsr #32

000012a0 <Code_261>:
    12a0:	3601      	adds	r6, #1
    12a2:	4770      	bx	lr

000012a4 <Dictionary_262>:
    12a4:	000012b2 			; <UNDEFINED> instruction: 0x000012b2
    12a8:	32020061 	andcc	r0, r2, #97	; 0x61
    12ac:	3e02002d 	cdpcc	0, 0, cr0, cr2, cr13, {1}

000012ae <Code_262>:
    12ae:	3e02      	subs	r6, #2
    12b0:	4770      	bx	lr

000012b2 <Dictionary_263>:
    12b2:	000012c0 	andeq	r1, r0, r0, asr #5
    12b6:	32020061 	andcc	r0, r2, #97	; 0x61
    12ba:	3602002b 	strcc	r0, [r2], -fp, lsr #32

000012bc <Code_263>:
    12bc:	3602      	adds	r6, #2
    12be:	4770      	bx	lr

000012c0 <Dictionary_264>:
    12c0:	000012d2 	ldrdeq	r1, [r0], -r2
    12c4:	6e060061 	cdpvs	0, 0, cr0, cr6, cr1, {3}
    12c8:	74616765 	strbtvc	r6, [r1], #-1893	; 0x765
    12cc:	42760065 	rsbsmi	r0, r6, #101	; 0x65

000012ce <Code_264>:
    12ce:	4276      	negs	r6, r6
    12d0:	4770      	bx	lr

000012d2 <Dictionary_265>:
    12d2:	000012e6 	andeq	r1, r0, r6, ror #5
    12d6:	61030061 	tstvs	r3, r1, rrx
    12da:	2e007362 	cdpcs	3, 0, cr7, cr0, cr2, {3}

000012dc <Code_265>:
    12dc:	2e00      	cmp	r6, #0
    12de:	bf48      	it	mi
    12e0:	f1d6 0600 	rsbsmi	r6, r6, #0
    12e4:	4770      	bx	lr

000012e6 <Dictionary_266>:
    12e6:	00001304 	andeq	r1, r0, r4, lsl #6
    12ea:	75050042 	strvc	r0, [r5, #-66]	; 0x42
    12ee:	646f6d2f 	strbtvs	r6, [pc], #-3375	; 12f6 <Code_266+0x4>

000012f2 <Code_266>:
    12f2:	cf01      	ldmia	r7!, {r0}
    12f4:	0031      	movs	r1, r6
    12f6:	fbb0 f6f6 	udiv	r6, r0, r6
    12fa:	4371      	muls	r1, r6
    12fc:	1a40      	subs	r0, r0, r1
    12fe:	3f04      	subs	r7, #4
    1300:	6038      	str	r0, [r7, #0]
    1302:	4770      	bx	lr

00001304 <Dictionary_267>:
    1304:	00001322 	andeq	r1, r0, r2, lsr #6
    1308:	2f040042 	svccs	0x00040042
    130c:	00646f6d 	rsbeq	r6, r4, sp, ror #30

00001310 <Code_267>:
    1310:	cf01      	ldmia	r7!, {r0}
    1312:	0031      	movs	r1, r6
    1314:	fb90 f6f6 	sdiv	r6, r0, r6
    1318:	4371      	muls	r1, r6
    131a:	1a40      	subs	r0, r0, r1
    131c:	3f04      	subs	r7, #4
    131e:	6038      	str	r0, [r7, #0]
    1320:	4770      	bx	lr

00001322 <Dictionary_268>:
    1322:	00001336 	andeq	r1, r0, r6, lsr r3
    1326:	6d030042 	stcvs	0, cr0, [r3, #-264]	; 0xfffffef8
    132a:	b500646f 	strlt	r6, [r0, #-1135]	; 0x46f

0000132c <Code_268>:
    132c:	b500      	push	{lr}
    132e:	f7ff ffef 	bl	1310 <Code_267>
    1332:	cf40      	ldmia	r7!, {r6}
    1334:	bd00      	pop	{pc}

00001336 <Dictionary_270>:
    1336:	00001346 	andeq	r1, r0, r6, asr #6
    133a:	2f010062 	svccs	0x00010062

0000133e <Code_270>:
    133e:	cf01      	ldmia	r7!, {r0}
    1340:	fb90 f6f6 	sdiv	r6, r0, r6
    1344:	4770      	bx	lr

00001346 <Dictionary_271>:
    1346:	00001356 	andeq	r1, r0, r6, asr r3
    134a:	2a01006a 	bcs	414fa <BIT18+0x14fa>

0000134e <Code_271>:
    134e:	cf01      	ldmia	r7!, {r0}
    1350:	4346      	muls	r6, r0
    1352:	4770      	bx	lr
    1354:	4346      	muls	r6, r0

00001356 <Dictionary_272>:
    1356:	00001364 	andeq	r1, r0, r4, ror #6
    135a:	32020061 	andcc	r0, r2, #97	; 0x61
    135e:	0076002a 	rsbseq	r0, r6, sl, lsr #32

00001360 <Code_272>:
    1360:	0076      	lsls	r6, r6, #1
    1362:	4770      	bx	lr

00001364 <Dictionary_273>:
    1364:	00001372 	andeq	r1, r0, r2, ror r3
    1368:	32020061 	andcc	r0, r2, #97	; 0x61
    136c:	1076002f 	rsbsne	r0, r6, pc, lsr #32

0000136e <Code_273>:
    136e:	1076      	asrs	r6, r6, #1
    1370:	4770      	bx	lr

00001372 <Dictionary_274>:
    1372:	00001386 	andeq	r1, r0, r6, lsl #7
    1376:	65040061 	strvs	r0, [r4, #-97]	; 0x61
    137a:	006e6576 	rsbeq	r6, lr, r6, ror r5

0000137e <Code_274>:
    137e:	2001      	movs	r0, #1
    1380:	4030      	ands	r0, r6
    1382:	1836      	adds	r6, r6, r0
    1384:	4770      	bx	lr

00001386 <Dictionary_275>:
    1386:	0000139e 	muleq	r0, lr, r3
    138a:	62040081 	andvs	r0, r4, #129	; 0x81
    138e:	00657361 	rsbeq	r7, r5, r1, ror #6

00001392 <Code_275>:
    1392:	f847 6d04 	str.w	r6, [r7, #-4]!
    1396:	4e91      	ldr	r6, [pc, #580]	; (15dc <uart_init+0xc>)
    1398:	4770      	bx	lr
    139a:	0000000a 	andeq	r0, r0, sl

0000139e <Dictionary_278>:
    139e:	000013b4 			; <UNDEFINED> instruction: 0x000013b4
    13a2:	62060000 	andvs	r0, r6, #0
    13a6:	72616e69 	rsbvc	r6, r1, #1680	; 0x690
    13aa:	488b0079 	stmmi	fp, {r0, r3, r4, r5, r6}

000013ac <Code_278>:
    13ac:	488b      	ldr	r0, [pc, #556]	; (15dc <uart_init+0xc>)
    13ae:	2102      	movs	r1, #2
    13b0:	6001      	str	r1, [r0, #0]
    13b2:	4770      	bx	lr

000013b4 <Dictionary_279>:
    13b4:	000013ca 	andeq	r1, r0, sl, asr #7
    13b8:	64070000 	strvs	r0, [r7], #-0
    13bc:	6d696365 	stclvs	3, cr6, [r9, #-404]!	; 0xfffffe6c
    13c0:	48866c61 	stmmi	r6, {r0, r5, r6, sl, fp, sp, lr}

000013c2 <Code_279>:
    13c2:	4886      	ldr	r0, [pc, #536]	; (15dc <uart_init+0xc>)
    13c4:	210a      	movs	r1, #10
    13c6:	6001      	str	r1, [r0, #0]
    13c8:	4770      	bx	lr

000013ca <Dictionary_280>:
    13ca:	000013dc 	ldrdeq	r1, [r0], -ip
    13ce:	68030000 	stmdavs	r3, {}	; <UNPREDICTABLE>
    13d2:	48817865 	stmmi	r1, {r0, r2, r5, r6, fp, ip, sp, lr}

000013d4 <Code_280>:
    13d4:	4881      	ldr	r0, [pc, #516]	; (15dc <uart_init+0xc>)
    13d6:	2110      	movs	r1, #16
    13d8:	6001      	str	r1, [r0, #0]
    13da:	4770      	bx	lr

000013dc <Dictionary_281>:
    13dc:	000013f8 	strdeq	r1, [r0], -r8
    13e0:	68090081 	stmdavs	r9, {r0, r7}
    13e4:	2d6b6f6f 	stclcs	15, cr6, [fp, #-444]!	; 0xfffffe44
    13e8:	74696d65 	strbtvc	r6, [r9], #-3429	; 0xd65

000013ec <Code_281>:
    13ec:	f847 6d04 	str.w	r6, [r7, #-4]!
    13f0:	4e7b      	ldr	r6, [pc, #492]	; (15e0 <uart_init+0x10>)
    13f2:	4770      	bx	lr
    13f4:	000014e2 	andeq	r1, r0, r2, ror #9

000013f8 <Dictionary_284>:
    13f8:	00001414 	andeq	r1, r0, r4, lsl r4
    13fc:	68080081 	stmdavs	r8, {r0, r7}
    1400:	2d6b6f6f 	stclcs	15, cr6, [fp, #-444]!	; 0xfffffe44
    1404:	0079656b 	rsbseq	r6, r9, fp, ror #10

00001408 <Code_284>:
    1408:	f847 6d04 	str.w	r6, [r7, #-4]!
    140c:	4e75      	ldr	r6, [pc, #468]	; (15e4 <uart_init+0x14>)
    140e:	4770      	bx	lr
    1410:	00001508 	andeq	r1, r0, r8, lsl #10

00001414 <Dictionary_287>:
    1414:	00001432 	andeq	r1, r0, r2, lsr r4
    1418:	680a0081 	stmdavs	sl, {r0, r7}
    141c:	2d6b6f6f 	stclcs	15, cr6, [fp, #-444]!	; 0xfffffe44
    1420:	74696d65 	strbtvc	r6, [r9], #-3429	; 0xd65
    1424:	f847003f 			; <UNDEFINED> instruction: 0xf847003f

00001426 <Code_287>:
    1426:	f847 6d04 	str.w	r6, [r7, #-4]!
    142a:	4e6f      	ldr	r6, [pc, #444]	; (15e8 <uart_init+0x18>)
    142c:	4770      	bx	lr
    142e:	00001532 	andeq	r1, r0, r2, lsr r5

00001432 <Dictionary_290>:
    1432:	0000144e 	andeq	r1, r0, lr, asr #8
    1436:	68090081 	stmdavs	r9, {r0, r7}
    143a:	2d6b6f6f 	stclcs	15, cr6, [fp, #-444]!	; 0xfffffe44
    143e:	3f79656b 	svccc	0x0079656b

00001442 <Code_290>:
    1442:	f847 6d04 	str.w	r6, [r7, #-4]!
    1446:	4e69      	ldr	r6, [pc, #420]	; (15ec <uart_init+0x1c>)
    1448:	4770      	bx	lr
    144a:	0000155e 	andeq	r1, r0, lr, asr r5

0000144e <Dictionary_293>:
    144e:	0000146c 	andeq	r1, r0, ip, ror #8
    1452:	680a0081 	stmdavs	sl, {r0, r7}
    1456:	2d6b6f6f 	stclcs	15, cr6, [fp, #-444]!	; 0xfffffe44
    145a:	73756170 	cmnvc	r5, #112, 2
    145e:	f8470065 			; <UNDEFINED> instruction: 0xf8470065

00001460 <Code_293>:
    1460:	f847 6d04 	str.w	r6, [r7, #-4]!
    1464:	4e62      	ldr	r6, [pc, #392]	; (15f0 <uart_init+0x20>)
    1466:	4770      	bx	lr
    1468:	00003732 	andeq	r3, r0, r2, lsr r7

0000146c <Dictionary_296>:
    146c:	00001482 	andeq	r1, r0, r2, lsl #9
    1470:	65040000 	strvs	r0, [r4, #-0]
    1474:	0074696d 	rsbseq	r6, r4, sp, ror #18

00001478 <Code_296>:
    1478:	b50f      	push	{r0, r1, r2, r3, lr}
    147a:	4859      	ldr	r0, [pc, #356]	; (15e0 <uart_init+0x10>)
    147c:	f000 f826 	bl	14cc <hook_intern>
    1480:	bd0f      	pop	{r0, r1, r2, r3, pc}

00001482 <Dictionary_297>:
    1482:	00001496 	muleq	r0, r6, r4
    1486:	6b030000 	blvs	c148e <BIT19+0x4148e>
    148a:	b50f7965 	strlt	r7, [pc, #-2405]	; b2d <Code_169+0x7>

0000148c <Code_297>:
    148c:	b50f      	push	{r0, r1, r2, r3, lr}
    148e:	4855      	ldr	r0, [pc, #340]	; (15e4 <uart_init+0x14>)
    1490:	f000 f81c 	bl	14cc <hook_intern>
    1494:	bd0f      	pop	{r0, r1, r2, r3, pc}

00001496 <Dictionary_298>:
    1496:	000014a8 	andeq	r1, r0, r8, lsr #9
    149a:	65050000 	strvs	r0, [r5, #-0]
    149e:	3f74696d 	svccc	0x0074696d

000014a2 <Code_298>:
    14a2:	4851      	ldr	r0, [pc, #324]	; (15e8 <uart_init+0x18>)
    14a4:	6800      	ldr	r0, [r0, #0]
    14a6:	4687      	mov	pc, r0

000014a8 <Dictionary_299>:
    14a8:	000014ba 			; <UNDEFINED> instruction: 0x000014ba
    14ac:	6b040000 	blvs	1014b4 <BIT20+0x14b4>
    14b0:	003f7965 	eorseq	r7, pc, r5, ror #18

000014b4 <Code_299>:
    14b4:	484d      	ldr	r0, [pc, #308]	; (15ec <uart_init+0x1c>)
    14b6:	6800      	ldr	r0, [r0, #0]
    14b8:	4687      	mov	pc, r0

000014ba <Dictionary_300>:
    14ba:	000014d0 	ldrdeq	r1, [r0], -r0
    14be:	70050000 	andvc	r0, r5, r0
    14c2:	65737561 	ldrbvs	r7, [r3, #-1377]!	; 0x561

000014c6 <Code_300>:
    14c6:	484a      	ldr	r0, [pc, #296]	; (15f0 <uart_init+0x20>)
    14c8:	6800      	ldr	r0, [r0, #0]
    14ca:	4687      	mov	pc, r0

000014cc <hook_intern>:
    14cc:	6800      	ldr	r0, [r0, #0]
    14ce:	4687      	mov	pc, r0

000014d0 <Dictionary_301>:
    14d0:	000014f6 	strdeq	r1, [r0], -r6
    14d4:	730b0000 	movwvc	r0, #45056	; 0xb000
    14d8:	61697265 	cmnvs	r9, r5, ror #4
    14dc:	6d652d6c 	stclvs	13, cr2, [r5, #-432]!	; 0xfffffe50
    14e0:	b5007469 	strlt	r7, [r0, #-1129]	; 0x469

000014e2 <Code_301>:
    14e2:	b500      	push	{lr}
    14e4:	f000 f825 	bl	1532 <Code_307>
    14e8:	2e00      	cmp	r6, #0
    14ea:	cf40      	ldmia	r7!, {r6}
    14ec:	d0fa      	beq.n	14e4 <Code_301+0x2>
    14ee:	4a41      	ldr	r2, [pc, #260]	; (15f4 <uart_init+0x24>)
    14f0:	7016      	strb	r6, [r2, #0]
    14f2:	cf40      	ldmia	r7!, {r6}
    14f4:	bd00      	pop	{pc}

000014f6 <Dictionary_304>:
    14f6:	0000151e 	andeq	r1, r0, lr, lsl r5
    14fa:	730a0000 	movwvc	r0, #40960	; 0xa000
    14fe:	61697265 	cmnvs	r9, r5, ror #4
    1502:	656b2d6c 	strbvs	r2, [fp, #-3436]!	; 0xd6c
    1506:	b5000079 	strlt	r0, [r0, #-121]	; 0x79

00001508 <Code_304>:
    1508:	b500      	push	{lr}
    150a:	f000 f828 	bl	155e <Code_310>
    150e:	2e00      	cmp	r6, #0
    1510:	cf40      	ldmia	r7!, {r6}
    1512:	d0fa      	beq.n	150a <Code_304+0x2>
    1514:	f847 6d04 	str.w	r6, [r7, #-4]!
    1518:	4a36      	ldr	r2, [pc, #216]	; (15f4 <uart_init+0x24>)
    151a:	7816      	ldrb	r6, [r2, #0]
    151c:	bd00      	pop	{pc}

0000151e <Dictionary_307>:
    151e:	0000154c 	andeq	r1, r0, ip, asr #10
    1522:	730c0000 	movwvc	r0, #49152	; 0xc000
    1526:	61697265 	cmnvs	r9, r5, ror #4
    152a:	6d652d6c 	stclvs	13, cr2, [r5, #-432]!	; 0xfffffe50
    152e:	003f7469 	eorseq	r7, pc, r9, ror #8

00001532 <Code_307>:
    1532:	b500      	push	{lr}
    1534:	f7ff ffc7 	bl	14c6 <Code_300>
    1538:	f847 6d04 	str.w	r6, [r7, #-4]!
    153c:	2600      	movs	r6, #0
    153e:	482e      	ldr	r0, [pc, #184]	; (15f8 <uart_init+0x28>)
    1540:	6801      	ldr	r1, [r0, #0]
    1542:	2080      	movs	r0, #128	; 0x80
    1544:	4001      	ands	r1, r0
    1546:	d000      	beq.n	154a <Code_307+0x18>
    1548:	43f6      	mvns	r6, r6
    154a:	bd00      	pop	{pc}

0000154c <Dictionary_310>:
    154c:	00001628 	andeq	r1, r0, r8, lsr #12
    1550:	730b0000 	movwvc	r0, #45056	; 0xb000
    1554:	61697265 	cmnvs	r9, r5, ror #4
    1558:	656b2d6c 	strbvs	r2, [fp, #-3436]!	; 0xd6c
    155c:	b5003f79 	strlt	r3, [r0, #-3961]	; 0xf79

0000155e <Code_310>:
    155e:	b500      	push	{lr}
    1560:	f7ff ffb1 	bl	14c6 <Code_300>
    1564:	f847 6d04 	str.w	r6, [r7, #-4]!
    1568:	2600      	movs	r6, #0
    156a:	4823      	ldr	r0, [pc, #140]	; (15f8 <uart_init+0x28>)
    156c:	6801      	ldr	r1, [r0, #0]
    156e:	2020      	movs	r0, #32
    1570:	4001      	ands	r1, r0
    1572:	d000      	beq.n	1576 <Code_310+0x18>
    1574:	43f6      	mvns	r6, r6
    1576:	bd00      	pop	{pc}

00001578 <Setup_Clocks>:
    1578:	4920      	ldr	r1, [pc, #128]	; (15fc <uart_init+0x2c>)
    157a:	f44f 3080 	mov.w	r0, #65536	; 0x10000
    157e:	6008      	str	r0, [r1, #0]

00001580 <awaitHSE>:
    1580:	6808      	ldr	r0, [r1, #0]
    1582:	f410 3000 	ands.w	r0, r0, #131072	; 0x20000
    1586:	d0fb      	beq.n	1580 <awaitHSE>
    1588:	491d      	ldr	r1, [pc, #116]	; (1600 <uart_init+0x30>)
    158a:	f04f 0001 	mov.w	r0, #1
    158e:	6008      	str	r0, [r1, #0]
    1590:	491a      	ldr	r1, [pc, #104]	; (15fc <uart_init+0x2c>)
    1592:	6808      	ldr	r0, [r1, #0]
    1594:	f020 0001 	bic.w	r0, r0, #1
    1598:	6008      	str	r0, [r1, #0]
    159a:	4770      	bx	lr

0000159c <Setup_UART>:
    159c:	4919      	ldr	r1, [pc, #100]	; (1604 <uart_init+0x34>)
    159e:	481a      	ldr	r0, [pc, #104]	; (1608 <uart_init+0x38>)
    15a0:	6008      	str	r0, [r1, #0]
    15a2:	491a      	ldr	r1, [pc, #104]	; (160c <uart_init+0x3c>)
    15a4:	6808      	ldr	r0, [r1, #0]
    15a6:	f020 00f0 	bic.w	r0, r0, #240	; 0xf0
    15aa:	f050 00a0 	orrs.w	r0, r0, #160	; 0xa0
    15ae:	6008      	str	r0, [r1, #0]
    15b0:	4917      	ldr	r1, [pc, #92]	; (1610 <uart_init+0x40>)
    15b2:	f420 407f 	bic.w	r0, r0, #65280	; 0xff00
    15b6:	f450 40ee 	orrs.w	r0, r0, #30464	; 0x7700
    15ba:	6008      	str	r0, [r1, #0]
    15bc:	4915      	ldr	r1, [pc, #84]	; (1614 <uart_init+0x44>)
    15be:	4816      	ldr	r0, [pc, #88]	; (1618 <uart_init+0x48>)
    15c0:	6008      	str	r0, [r1, #0]
    15c2:	4916      	ldr	r1, [pc, #88]	; (161c <uart_init+0x4c>)
    15c4:	2046      	movs	r0, #70	; 0x46
    15c6:	6008      	str	r0, [r1, #0]
    15c8:	4915      	ldr	r1, [pc, #84]	; (1620 <uart_init+0x50>)
    15ca:	4816      	ldr	r0, [pc, #88]	; (1624 <uart_init+0x54>)
    15cc:	6008      	str	r0, [r1, #0]
    15ce:	4770      	bx	lr

000015d0 <uart_init>:
    15d0:	b500      	push	{lr}
    15d2:	f7ff ffd1 	bl	1578 <Setup_Clocks>
    15d6:	f7ff ffe1 	bl	159c <Setup_UART>
    15da:	bd00      	pop	{pc}
    15dc:	2001fffc 	strdcs	pc, [r1], -ip
    15e0:	2001fff8 	strdcs	pc, [r1], -r8
    15e4:	2001fff4 	strdcs	pc, [r1], -r4
    15e8:	2001fff0 	strdcs	pc, [r1], -r0
    15ec:	2001ffec 	andcs	pc, r1, ip, ror #31
    15f0:	2001ffe8 	andcs	pc, r1, r8, ror #31
    15f4:	40004404 	andmi	r4, r0, r4, lsl #8
    15f8:	40004400 	andmi	r4, r0, r0, lsl #8
    15fc:	40023800 	andmi	r3, r2, r0, lsl #16
    1600:	40023808 	andmi	r3, r2, r8, lsl #16
    1604:	40023830 	andmi	r3, r2, r0, lsr r8
    1608:	001001ff 			; <UNDEFINED> instruction: 0x001001ff
    160c:	40020000 	andmi	r0, r2, r0
    1610:	40020020 	andmi	r0, r2, r0, lsr #32
    1614:	40023840 	andmi	r3, r2, r0, asr #16
    1618:	00020000 	andeq	r0, r2, r0
    161c:	40004408 	andmi	r4, r0, r8, lsl #8
    1620:	4000440c 	andmi	r4, r0, ip, lsl #8
    1624:	0000200c 	andeq	r2, r0, ip

00001628 <Dictionary_314>:
    1628:	0000164c 	andeq	r1, r0, ip, asr #12
    162c:	63070000 	movwvs	r0, #28672	; 0x7000
    1630:	65707865 	ldrbvs	r7, [r0, #-2149]!	; 0x865
    1634:	b5007463 	strlt	r7, [r0, #-1123]	; 0x463

00001636 <Code_314>:
    1636:	b500      	push	{lr}
    1638:	6838      	ldr	r0, [r7, #0]
    163a:	b401      	push	{r0}
    163c:	3001      	adds	r0, #1
    163e:	6038      	str	r0, [r7, #0]
    1640:	f000 f80b 	bl	165a <Code_316>
    1644:	bc01      	pop	{r0}
    1646:	7006      	strb	r6, [r0, #0]
    1648:	cf40      	ldmia	r7!, {r6}
    164a:	bd00      	pop	{pc}

0000164c <Dictionary_316>:
    164c:	000016c2 	andeq	r1, r0, r2, asr #13
    1650:	61060000 	mrsvs	r0, (UNDEF: 6)
    1654:	70656363 	rsbvc	r6, r5, r3, ror #6
    1658:	b5000074 	strlt	r0, [r0, #-116]	; 0x74

0000165a <Code_316>:
    165a:	b500      	push	{lr}
    165c:	cf02      	ldmia	r7!, {r1}
    165e:	3901      	subs	r1, #1
    1660:	2200      	movs	r2, #0
    1662:	f7ff ff13 	bl	148c <Code_297>
    1666:	0030      	movs	r0, r6
    1668:	cf40      	ldmia	r7!, {r6}
    166a:	287f      	cmp	r0, #127	; 0x7f
    166c:	d009      	beq.n	1682 <Code_316+0x28>
    166e:	2820      	cmp	r0, #32
    1670:	d219      	bcs.n	16a6 <Code_316+0x4c>
    1672:	2809      	cmp	r0, #9
    1674:	d016      	beq.n	16a4 <Code_316+0x4a>
    1676:	280a      	cmp	r0, #10
    1678:	d01f      	beq.n	16ba <Code_316+0x60>
    167a:	280d      	cmp	r0, #13
    167c:	d01d      	beq.n	16ba <Code_316+0x60>
    167e:	2808      	cmp	r0, #8
    1680:	d1ef      	bne.n	1662 <Code_316+0x8>
    1682:	2a00      	cmp	r2, #0
    1684:	d0ed      	beq.n	1662 <Code_316+0x8>
    1686:	f000 f90e 	bl	18a6 <dotgaensefuesschen>
    168a:	08200803 	stmdaeq	r0!, {r0, r1, fp}
    168e:	2a00      	cmp	r2, #0
    1690:	d0e7      	beq.n	1662 <Code_316+0x8>
    1692:	5c88      	ldrb	r0, [r1, r2]
    1694:	3a01      	subs	r2, #1
    1696:	2380      	movs	r3, #128	; 0x80
    1698:	4003      	ands	r3, r0
    169a:	d0e2      	beq.n	1662 <Code_316+0x8>
    169c:	2340      	movs	r3, #64	; 0x40
    169e:	4003      	ands	r3, r0
    16a0:	d0f5      	beq.n	168e <Code_316+0x34>
    16a2:	e7de      	b.n	1662 <Code_316+0x8>
    16a4:	2020      	movs	r0, #32
    16a6:	42b2      	cmp	r2, r6
    16a8:	d2db      	bcs.n	1662 <Code_316+0x8>
    16aa:	f847 6d04 	str.w	r6, [r7, #-4]!
    16ae:	0006      	movs	r6, r0
    16b0:	f7ff fee2 	bl	1478 <Code_296>
    16b4:	3201      	adds	r2, #1
    16b6:	5488      	strb	r0, [r1, r2]
    16b8:	e7d3      	b.n	1662 <Code_316+0x8>
    16ba:	0016      	movs	r6, r2
    16bc:	f000 f8a2 	bl	1804 <Code_347>
    16c0:	bd00      	pop	{pc}

000016c2 <Dictionary_320>:
    16c2:	000016d4 	ldrdeq	r1, [r0], -r4
    16c6:	74030040 	strvc	r0, [r3], #-64	; 0x40
    16ca:	f8476269 			; <UNDEFINED> instruction: 0xf8476269

000016cc <Code_320>:
    16cc:	f847 6d04 	str.w	r6, [r7, #-4]!
    16d0:	4e29      	ldr	r6, [pc, #164]	; (1778 <Code_332+0x22>)
    16d2:	4770      	bx	lr

000016d4 <Dictionary_322>:
    16d4:	000016ea 	andeq	r1, r0, sl, ror #13
    16d8:	3e030081 	cdpcc	0, 0, cr0, cr3, cr1, {4}
    16dc:	f8476e69 			; <UNDEFINED> instruction: 0xf8476e69

000016de <Code_322>:
    16de:	f847 6d04 	str.w	r6, [r7, #-4]!
    16e2:	4e26      	ldr	r6, [pc, #152]	; (177c <Code_332+0x26>)
    16e4:	4770      	bx	lr
    16e6:	00000000 	andeq	r0, r0, r0

000016ea <Dictionary_325>:
    16ea:	00001710 	andeq	r1, r0, r0, lsl r7
    16ee:	630e0082 	movwvs	r0, #57474	; 0xe082
    16f2:	65727275 	ldrbvs	r7, [r2, #-629]!	; 0x275
    16f6:	732d746e 	teqvc	sp, #1845493760	; 0x6e000000
    16fa:	6372756f 	cmnvs	r2, #465567744	; 0x1bc00000
    16fe:	f8470065 			; <UNDEFINED> instruction: 0xf8470065

00001700 <Code_325>:
    1700:	f847 6d04 	str.w	r6, [r7, #-4]!
    1704:	4e1e      	ldr	r6, [pc, #120]	; (1780 <Code_332+0x2a>)
    1706:	4770      	bx	lr
    1708:	00000000 	andeq	r0, r0, r0
    170c:	20000068 	andcs	r0, r0, r8, rrx

00001710 <Dictionary_328>:
    1710:	0000172c 	andeq	r1, r0, ip, lsr #14
    1714:	73090000 	movwvc	r0, #36864	; 0x9000
    1718:	6f737465 	svcvs	0x00737465
    171c:	65637275 	strbvs	r7, [r3, #-629]!	; 0x275

00001720 <Code_328>:
    1720:	4817      	ldr	r0, [pc, #92]	; (1780 <Code_332+0x2a>)
    1722:	cf02      	ldmia	r7!, {r1}
    1724:	6006      	str	r6, [r0, #0]
    1726:	6041      	str	r1, [r0, #4]
    1728:	cf40      	ldmia	r7!, {r6}
    172a:	4770      	bx	lr

0000172c <Dictionary_330>:
    172c:	0000174a 	andeq	r1, r0, sl, asr #14
    1730:	73060000 	movwvc	r0, #24576	; 0x6000
    1734:	6372756f 	cmnvs	r2, #465567744	; 0x1bc00000
    1738:	f8470065 			; <UNDEFINED> instruction: 0xf8470065

0000173a <Code_330>:
    173a:	f847 6d04 	str.w	r6, [r7, #-4]!
    173e:	4e10      	ldr	r6, [pc, #64]	; (1780 <Code_332+0x2a>)
    1740:	3f04      	subs	r7, #4
    1742:	6870      	ldr	r0, [r6, #4]
    1744:	6038      	str	r0, [r7, #0]
    1746:	6836      	ldr	r6, [r6, #0]
    1748:	4770      	bx	lr

0000174a <Dictionary_332>:
    174a:	00001784 	andeq	r1, r0, r4, lsl #15
    174e:	71050000 	mrsvc	r0, (UNDEF: 5)
    1752:	79726575 	ldmdbvc	r2!, {r0, r2, r4, r5, r6, r8, sl, sp, lr}^

00001756 <Code_332>:
    1756:	b50f      	push	{r0, r1, r2, r3, lr}
    1758:	4808      	ldr	r0, [pc, #32]	; (177c <Code_332+0x26>)
    175a:	2100      	movs	r1, #0
    175c:	6001      	str	r1, [r0, #0]
    175e:	f7ff ffb5 	bl	16cc <Code_320>
    1762:	f847 6d04 	str.w	r6, [r7, #-4]!
    1766:	f847 6d04 	str.w	r6, [r7, #-4]!
    176a:	26c8      	movs	r6, #200	; 0xc8
    176c:	f7ff ff75 	bl	165a <Code_316>
    1770:	f7ff ffd6 	bl	1720 <Code_328>
    1774:	bd0f      	pop	{r0, r1, r2, r3, pc}
    1776:	00680000 	rsbeq	r0, r8, r0
    177a:	ffe42000 			; <UNDEFINED> instruction: 0xffe42000
    177e:	ffdc2001 			; <UNDEFINED> instruction: 0xffdc2001
    1782:	17d22001 	ldrbne	r2, [r2, r1]

00001784 <Dictionary_337>:
    1784:	000017d2 	ldrdeq	r1, [r0], -r2
    1788:	63070000 	movwvs	r0, #28672	; 0x7000
    178c:	61706d6f 	cmnvs	r0, pc, ror #26
    1790:	b50f6572 	strlt	r6, [pc, #-1394]	; 1226 <Code_235+0x13a>

00001792 <Code_337>:
    1792:	b50f      	push	{r0, r1, r2, r3, lr}
    1794:	0031      	movs	r1, r6
    1796:	cf40      	ldmia	r7!, {r6}
    1798:	cf01      	ldmia	r7!, {r0}
    179a:	4288      	cmp	r0, r1
    179c:	d002      	beq.n	17a4 <Code_337+0x12>
    179e:	cf40      	ldmia	r7!, {r6}
    17a0:	2600      	movs	r6, #0
    17a2:	bd0f      	pop	{r0, r1, r2, r3, pc}
    17a4:	cf02      	ldmia	r7!, {r1}
    17a6:	2800      	cmp	r0, #0
    17a8:	d010      	beq.n	17cc <Code_337+0x3a>
    17aa:	3801      	subs	r0, #1
    17ac:	5c0a      	ldrb	r2, [r1, r0]
    17ae:	5c33      	ldrb	r3, [r6, r0]
    17b0:	2a41      	cmp	r2, #65	; 0x41
    17b2:	d302      	bcc.n	17ba <Code_337+0x28>
    17b4:	2a5b      	cmp	r2, #91	; 0x5b
    17b6:	bf38      	it	cc
    17b8:	3220      	addcc	r2, #32
    17ba:	2b41      	cmp	r3, #65	; 0x41
    17bc:	d302      	bcc.n	17c4 <Code_337+0x32>
    17be:	2b5b      	cmp	r3, #91	; 0x5b
    17c0:	bf38      	it	cc
    17c2:	3320      	addcc	r3, #32
    17c4:	429a      	cmp	r2, r3
    17c6:	d0ee      	beq.n	17a6 <Code_337+0x14>
    17c8:	2600      	movs	r6, #0
    17ca:	bd0f      	pop	{r0, r1, r2, r3, pc}
    17cc:	2600      	movs	r6, #0
    17ce:	43f6      	mvns	r6, r6
    17d0:	bd0f      	pop	{r0, r1, r2, r3, pc}

000017d2 <Dictionary_342>:
    17d2:	000017e6 	andeq	r1, r0, r6, ror #15
    17d6:	63020000 	movwvs	r0, #8192	; 0x2000
    17da:	b5000072 	strlt	r0, [r0, #-114]	; 0x72

000017dc <Code_342>:
    17dc:	b500      	push	{lr}
    17de:	f000 f862 	bl	18a6 <dotgaensefuesschen>
    17e2:	bd000a01 	vstrlt	s0, [r0, #-4]

000017e6 <Dictionary_344>:
    17e6:	000017f8 	strdeq	r1, [r0], -r8
    17ea:	62020000 	andvs	r0, r2, #0
    17ee:	f847006c 			; <UNDEFINED> instruction: 0xf847006c

000017f0 <Code_344>:
    17f0:	f847 6d04 	str.w	r6, [r7, #-4]!
    17f4:	2620      	movs	r6, #32
    17f6:	4770      	bx	lr

000017f8 <Dictionary_347>:
    17f8:	0000180c 	andeq	r1, r0, ip, lsl #16
    17fc:	73050000 	movwvc	r0, #20480	; 0x5000
    1800:	65636170 	strbvs	r6, [r3, #-368]!	; 0x170

00001804 <Code_347>:
    1804:	f847 6d04 	str.w	r6, [r7, #-4]!
    1808:	2620      	movs	r6, #32
    180a:	e635      	b.n	1478 <Code_296>

0000180c <Dictionary_350>:
    180c:	0000182c 	andeq	r1, r0, ip, lsr #16
    1810:	73060000 	movwvc	r0, #24576	; 0x6000
    1814:	65636170 	strbvs	r6, [r3, #-368]!	; 0x170
    1818:	b5000073 	strlt	r0, [r0, #-115]	; 0x73

0000181a <Code_350>:
    181a:	b500      	push	{lr}
    181c:	2e00      	cmp	r6, #0
    181e:	dd03      	ble.n	1828 <Code_350+0xe>
    1820:	f7ff fff0 	bl	1804 <Code_347>
    1824:	3e01      	subs	r6, #1
    1826:	d1fb      	bne.n	1820 <Code_350+0x6>
    1828:	cf40      	ldmia	r7!, {r6}
    182a:	bd00      	pop	{pc}

0000182c <Dictionary_352>:
    182c:	0000183c 	andeq	r1, r0, ip, lsr r8
    1830:	5b060050 	blpl	181978 <BIT20+0x81978>
    1834:	72616863 	rsbvc	r6, r1, #6488064	; 0x630000
    1838:	e005005d 	and	r0, r5, sp, asr r0

0000183a <Code_352>:
    183a:	e005      	b.n	1848 <Code_353>

0000183c <Dictionary_353>:
    183c:	00001854 	andeq	r1, r0, r4, asr r8
    1840:	63040000 	movwvs	r0, #16384	; 0x4000
    1844:	00726168 	rsbseq	r6, r2, r8, ror #2

00001848 <Code_353>:
    1848:	b500      	push	{lr}
    184a:	f001 fb89 	bl	2f60 <Code_813>
    184e:	cf40      	ldmia	r7!, {r6}
    1850:	7836      	ldrb	r6, [r6, #0]
    1852:	bd00      	pop	{pc}

00001854 <Dictionary_355>:
    1854:	00001864 	andeq	r1, r0, r4, ror #16
    1858:	28010050 	stmdacs	r1, {r4, r6}

0000185c <Code_355>:
    185c:	f847 6d04 	str.w	r6, [r7, #-4]!
    1860:	2629      	movs	r6, #41	; 0x29
    1862:	e006      	b.n	1872 <Code_358+0x6>

00001864 <Dictionary_358>:
    1864:	0000187e 	andeq	r1, r0, lr, ror r8
    1868:	5c010050 	stcpl	0, cr0, [r1], {80}	; 0x50

0000186c <Code_358>:
    186c:	f847 6d04 	str.w	r6, [r7, #-4]!
    1870:	2600      	movs	r6, #0
    1872:	b500      	push	{lr}
    1874:	f001 fb7e 	bl	2f74 <Code_815>
    1878:	3704      	adds	r7, #4
    187a:	cf40      	ldmia	r7!, {r6}
    187c:	bd00      	pop	{pc}

0000187e <Dictionary_363>:
    187e:	000018c2 	andeq	r1, r0, r2, asr #17
    1882:	2e020010 	mcrcs	0, 0, r0, cr2, cr0, {0}
    1886:	489c0022 	ldmmi	ip, {r1, r5}

00001888 <Code_363>:
    1888:	489c      	ldr	r0, [pc, #624]	; (1afc <Code_402+0x9a>)
    188a:	b500      	push	{lr}
    188c:	f847 6d04 	str.w	r6, [r7, #-4]!
    1890:	0006      	movs	r6, r0
    1892:	f000 fa60 	bl	1d56 <Code_443>
    1896:	f847 6d04 	str.w	r6, [r7, #-4]!
    189a:	2622      	movs	r6, #34	; 0x22
    189c:	f001 fb6a 	bl	2f74 <Code_815>
    18a0:	f000 fd8d 	bl	23be <Code_571>
    18a4:	bd00      	pop	{pc}

000018a6 <dotgaensefuesschen>:
    18a6:	b40a      	push	{r1, r3}
    18a8:	f847 6d04 	str.w	r6, [r7, #-4]!
    18ac:	4676      	mov	r6, lr
    18ae:	3e01      	subs	r6, #1
    18b0:	7833      	ldrb	r3, [r6, #0]
    18b2:	2101      	movs	r1, #1
    18b4:	3301      	adds	r3, #1
    18b6:	4019      	ands	r1, r3
    18b8:	185b      	adds	r3, r3, r1
    18ba:	eb1e 0e03 	adds.w	lr, lr, r3
    18be:	bc0a      	pop	{r1, r3}
    18c0:	e039      	b.n	1936 <Code_378>

000018c2 <Dictionary_369>:
    18c2:	000018e8 	andeq	r1, r0, r8, ror #17
    18c6:	63020010 	movwvs	r0, #8208	; 0x2010
    18ca:	488c0022 	stmmi	ip, {r1, r5}

000018cc <Code_369>:
    18cc:	488c      	ldr	r0, [pc, #560]	; (1b00 <Code_402+0x9e>)
    18ce:	e7dc      	b.n	188a <Code_363+0x2>

000018d0 <dotcfuesschen>:
    18d0:	f847 6d04 	str.w	r6, [r7, #-4]!
    18d4:	4676      	mov	r6, lr
    18d6:	3e01      	subs	r6, #1
    18d8:	7833      	ldrb	r3, [r6, #0]
    18da:	2101      	movs	r1, #1
    18dc:	3301      	adds	r3, #1
    18de:	4019      	ands	r1, r3
    18e0:	185b      	adds	r3, r3, r1
    18e2:	eb1e 0e03 	adds.w	lr, lr, r3
    18e6:	4770      	bx	lr

000018e8 <Dictionary_371>:
    18e8:	00001912 	andeq	r1, r0, r2, lsl r9
    18ec:	73020010 	movwvc	r0, #8208	; 0x2010
    18f0:	48840022 	stmmi	r4, {r1, r5}

000018f2 <Code_371>:
    18f2:	4884      	ldr	r0, [pc, #528]	; (1b04 <Code_402+0xa2>)
    18f4:	e7c9      	b.n	188a <Code_363+0x2>

000018f6 <dotsfuesschen>:
    18f6:	f847 6d04 	str.w	r6, [r7, #-4]!
    18fa:	4676      	mov	r6, lr
    18fc:	f847 6d04 	str.w	r6, [r7, #-4]!
    1900:	3e01      	subs	r6, #1
    1902:	7836      	ldrb	r6, [r6, #0]
    1904:	2101      	movs	r1, #1
    1906:	1c73      	adds	r3, r6, #1
    1908:	4019      	ands	r1, r3
    190a:	185b      	adds	r3, r3, r1
    190c:	eb1e 0e03 	adds.w	lr, lr, r3
    1910:	4770      	bx	lr

00001912 <Dictionary_375>:
    1912:	0000192a 	andeq	r1, r0, sl, lsr #18
    1916:	63050000 	movwvs	r0, #20480	; 0x5000
    191a:	746e756f 	strbtvc	r7, [lr], #-1391	; 0x56f

0000191e <Code_375>:
    191e:	3601      	adds	r6, #1
    1920:	f847 6d04 	str.w	r6, [r7, #-4]!
    1924:	3e01      	subs	r6, #1
    1926:	7836      	ldrb	r6, [r6, #0]
    1928:	4770      	bx	lr

0000192a <Dictionary_378>:
    192a:	00001952 	andeq	r1, r0, r2, asr r9
    192e:	63050000 	movwvs	r0, #20480	; 0x5000
    1932:	65707974 	ldrbvs	r7, [r0, #-2420]!	; 0x974

00001936 <Code_378>:
    1936:	b501      	push	{r0, lr}
    1938:	7830      	ldrb	r0, [r6, #0]
    193a:	2800      	cmp	r0, #0
    193c:	d007      	beq.n	194e <Code_378+0x18>
    193e:	3601      	adds	r6, #1
    1940:	f847 6d04 	str.w	r6, [r7, #-4]!
    1944:	7836      	ldrb	r6, [r6, #0]
    1946:	f7ff fd97 	bl	1478 <Code_296>
    194a:	3801      	subs	r0, #1
    194c:	d1f7      	bne.n	193e <Code_378+0x8>
    194e:	cf40      	ldmia	r7!, {r6}
    1950:	bd01      	pop	{r0, pc}

00001952 <Dictionary_382>:
    1952:	00001980 	andeq	r1, r0, r0, lsl #19
    1956:	74040000 	strvc	r0, [r4], #-0
    195a:	00657079 	rsbeq	r7, r5, r9, ror r0

0000195e <Code_382>:
    195e:	0031      	movs	r1, r6
    1960:	cf40      	ldmia	r7!, {r6}
    1962:	0030      	movs	r0, r6
    1964:	cf40      	ldmia	r7!, {r6}

00001966 <stype_addr_r0_len_r1>:
    1966:	b500      	push	{lr}
    1968:	2900      	cmp	r1, #0
    196a:	d008      	beq.n	197e <stype_addr_r0_len_r1+0x18>
    196c:	2200      	movs	r2, #0
    196e:	f847 6d04 	str.w	r6, [r7, #-4]!
    1972:	5c86      	ldrb	r6, [r0, r2]
    1974:	f7ff fd80 	bl	1478 <Code_296>
    1978:	3201      	adds	r2, #1
    197a:	4291      	cmp	r1, r2
    197c:	d1f7      	bne.n	196e <stype_addr_r0_len_r1+0x8>
    197e:	bd00      	pop	{pc}

00001980 <Dictionary_386>:
    1980:	000019b8 			; <UNDEFINED> instruction: 0x000019b8
    1984:	68040000 	stmdavs	r4, {}	; <UNPREDICTABLE>
    1988:	002e7865 	eoreq	r7, lr, r5, ror #16

0000198c <Code_386>:
    198c:	b503      	push	{r0, r1, lr}
    198e:	0031      	movs	r1, r6
    1990:	cf40      	ldmia	r7!, {r6}
    1992:	2020      	movs	r0, #32
    1994:	3804      	subs	r0, #4
    1996:	f847 6d04 	str.w	r6, [r7, #-4]!
    199a:	fa31 f600 	lsrs.w	r6, r1, r0
    199e:	f016 060f 	ands.w	r6, r6, #15
    19a2:	2e09      	cmp	r6, #9
    19a4:	bf8c      	ite	hi
    19a6:	3637      	addhi	r6, #55	; 0x37
    19a8:	3630      	addls	r6, #48	; 0x30
    19aa:	f7ff fd65 	bl	1478 <Code_296>
    19ae:	2800      	cmp	r0, #0
    19b0:	d1f0      	bne.n	1994 <Code_386+0x8>
    19b2:	f7ff ff27 	bl	1804 <Code_347>
    19b6:	bd03      	pop	{r0, r1, pc}

000019b8 <Dictionary_389>:
    19b8:	000019c8 	andeq	r1, r0, r8, asr #19
    19bc:	68030000 	stmdavs	r3, {}	; <UNPREDICTABLE>
    19c0:	b51f732e 	ldrlt	r7, [pc, #-814]	; 169a <Code_316+0x40>

000019c2 <Code_389>:
    19c2:	b51f      	push	{r0, r1, r2, r3, r4, lr}
    19c4:	4c50      	ldr	r4, [pc, #320]	; (1b08 <Code_402+0xa6>)
    19c6:	e00e      	b.n	19e6 <Code_391+0x4>

000019c8 <Dictionary_390>:
    19c8:	000019d8 	ldrdeq	r1, [r0], -r8
    19cc:	75030000 	strvc	r0, [r3, #-0]
    19d0:	b51f732e 	ldrlt	r7, [pc, #-814]	; 16aa <Code_316+0x50>

000019d2 <Code_390>:
    19d2:	b51f      	push	{r0, r1, r2, r3, r4, lr}
    19d4:	4c4d      	ldr	r4, [pc, #308]	; (1b0c <Code_402+0xaa>)
    19d6:	e006      	b.n	19e6 <Code_391+0x4>

000019d8 <Dictionary_391>:
    19d8:	00001a56 	andeq	r1, r0, r6, asr sl
    19dc:	2e020000 	cdpcs	0, 0, cr0, cr2, cr0, {0}
    19e0:	b51f0073 	ldrlt	r0, [pc, #-115]	; 1975 <stype_addr_r0_len_r1+0xf>

000019e2 <Code_391>:
    19e2:	b51f      	push	{r0, r1, r2, r3, r4, lr}
    19e4:	4c4a      	ldr	r4, [pc, #296]	; (1b10 <Code_402+0xae>)
    19e6:	494b      	ldr	r1, [pc, #300]	; (1b14 <Code_402+0xb2>)
    19e8:	1bc9      	subs	r1, r1, r7
    19ea:	0889      	lsrs	r1, r1, #2
    19ec:	4a4a      	ldr	r2, [pc, #296]	; (1b18 <Code_402+0xb6>)
    19ee:	6810      	ldr	r0, [r2, #0]
    19f0:	b403      	push	{r0, r1}
    19f2:	200a      	movs	r0, #10
    19f4:	6010      	str	r0, [r2, #0]
    19f6:	f7ff ff56 	bl	18a6 <dotgaensefuesschen>
    19fa:	61745308 	cmnvs	r4, r8, lsl #6
    19fe:	203a6b63 	eorscs	r6, sl, r3, ror #22
    1a02:	f847005b 			; <UNDEFINED> instruction: 0xf847005b
    1a06:	6d04      	ldr	r4, [r0, #80]	; 0x50
    1a08:	000e      	movs	r6, r1
    1a0a:	f001 fc8d 	bl	3328 <Code_881>
    1a0e:	f7ff ff4a 	bl	18a6 <dotgaensefuesschen>
    1a12:	00205d02 	eoreq	r5, r0, r2, lsl #26
    1a16:	bc03      	pop	{r0, r1}
    1a18:	4a3f      	ldr	r2, [pc, #252]	; (1b18 <Code_402+0xb6>)
    1a1a:	6010      	str	r0, [r2, #0]
    1a1c:	2900      	cmp	r1, #0
    1a1e:	d00a      	beq.n	1a36 <Code_391+0x54>
    1a20:	4a3e      	ldr	r2, [pc, #248]	; (1b1c <Code_402+0xba>)
    1a22:	6810      	ldr	r0, [r2, #0]
    1a24:	b406      	push	{r1, r2}
    1a26:	f847 6d04 	str.w	r6, [r7, #-4]!
    1a2a:	0006      	movs	r6, r0
    1a2c:	47a0      	blx	r4
    1a2e:	bc06      	pop	{r1, r2}
    1a30:	3a04      	subs	r2, #4
    1a32:	3901      	subs	r1, #1
    1a34:	d1f5      	bne.n	1a22 <Code_391+0x40>
    1a36:	f7ff ff36 	bl	18a6 <dotgaensefuesschen>
    1a3a:	4f542006 	svcmi	0x00542006
    1a3e:	00203a53 	eoreq	r3, r0, r3, asr sl
    1a42:	f847 6d04 	str.w	r6, [r7, #-4]!
    1a46:	0036      	movs	r6, r6
    1a48:	47a0      	blx	r4
    1a4a:	f7ff ff2c 	bl	18a6 <dotgaensefuesschen>
    1a4e:	3e2a2004 	cdpcc	0, 2, cr2, cr10, cr4, {0}
    1a52:	bd1f000a 	ldclt	0, cr0, [pc, #-40]	; 1a30 <Code_391+0x4e>

00001a56 <Dictionary_402>:
    1a56:	00001b20 	andeq	r1, r0, r0, lsr #22
    1a5a:	77050000 	strvc	r0, [r5, -r0]
    1a5e:	7364726f 	cmnvc	r4, #-268435450	; 0xf0000006

00001a62 <Code_402>:
    1a62:	b500      	push	{lr}
    1a64:	f7ff ff1f 	bl	18a6 <dotgaensefuesschen>
    1a68:	726f7706 	rsbvc	r7, pc, #1572864	; 0x180000
    1a6c:	000a7364 	andeq	r7, sl, r4, ror #6
    1a70:	f000 fee7 	bl	2842 <Code_646>
    1a74:	f7ff ff17 	bl	18a6 <dotgaensefuesschen>
    1a78:	64644109 	strbtvs	r4, [r4], #-265	; 0x109
    1a7c:	73736572 	cmnvc	r3, #478150656	; 0x1c800000
    1a80:	f847203a 			; <UNDEFINED> instruction: 0xf847203a
    1a84:	6d04      	ldr	r4, [r0, #80]	; 0x50
    1a86:	f7ff ff81 	bl	198c <Code_386>
    1a8a:	f7ff ff0c 	bl	18a6 <dotgaensefuesschen>
    1a8e:	6e694c06 	cdpvs	12, 6, cr4, cr9, cr6, {0}
    1a92:	00203a6b 	eoreq	r3, r0, fp, ror #20
    1a96:	f847 6d04 	str.w	r6, [r7, #-4]!
    1a9a:	6836      	ldr	r6, [r6, #0]
    1a9c:	f7ff ff76 	bl	198c <Code_386>
    1aa0:	f7ff ff01 	bl	18a6 <dotgaensefuesschen>
    1aa4:	616c4607 	cmnvs	ip, r7, lsl #12
    1aa8:	203a7367 	eorscs	r7, sl, r7, ror #6
    1aac:	f847 6d04 	str.w	r6, [r7, #-4]!
    1ab0:	88b6      	ldrh	r6, [r6, #4]
    1ab2:	f7ff ff6b 	bl	198c <Code_386>
    1ab6:	f7ff fef6 	bl	18a6 <dotgaensefuesschen>
    1aba:	646f4306 	strbtvs	r4, [pc], #-774	; 1ac2 <Code_402+0x60>
    1abe:	00203a65 	eoreq	r3, r0, r5, ror #20
    1ac2:	1db0      	adds	r0, r6, #6
    1ac4:	f000 fef6 	bl	28b4 <skipstring>
    1ac8:	f847 6d04 	str.w	r6, [r7, #-4]!
    1acc:	0006      	movs	r6, r0
    1ace:	f7ff ff5d 	bl	198c <Code_386>
    1ad2:	f7ff fee8 	bl	18a6 <dotgaensefuesschen>
    1ad6:	6d614e06 	stclvs	14, cr4, [r1, #-24]!	; 0xffffffe8
    1ada:	00203a65 	eoreq	r3, r0, r5, ror #20
    1ade:	f847 6d04 	str.w	r6, [r7, #-4]!
    1ae2:	3606      	adds	r6, #6
    1ae4:	f7ff ff27 	bl	1936 <Code_378>
    1ae8:	f7ff fedd 	bl	18a6 <dotgaensefuesschen>
    1aec:	f0000a01 			; <UNDEFINED> instruction: 0xf0000a01
    1af0:	febf 0030 	mrc2	0, 5, r0, cr15, cr0, {1}
    1af4:	cf40      	ldmia	r7!, {r6}
    1af6:	d0bd      	beq.n	1a74 <Code_402+0x12>
    1af8:	cf40      	ldmia	r7!, {r6}
    1afa:	bd00      	pop	{pc}
    1afc:	000018a6 	andeq	r1, r0, r6, lsr #17
    1b00:	000018d0 	ldrdeq	r1, [r0], -r0
    1b04:	000018f6 	strdeq	r1, [r0], -r6
    1b08:	0000198d 	andeq	r1, r0, sp, lsl #19
    1b0c:	00003319 	andeq	r3, r0, r9, lsl r3
    1b10:	00003329 	andeq	r3, r0, r9, lsr #6
    1b14:	20000230 	andcs	r0, r0, r0, lsr r2
    1b18:	2001fffc 	strdcs	pc, [r1], -ip
    1b1c:	2000022c 	andcs	r0, r0, ip, lsr #4

00001b20 <Dictionary_422>:
    1b20:	00001c84 	andeq	r1, r0, r4, lsl #25
    1b24:	310d0000 	mrscc	r0, (UNDEF: 13)
    1b28:	74696232 	strbtvc	r6, [r9], #-562	; 0x232
    1b2c:	6f636e65 	svcvs	0x00636e65
    1b30:	676e6964 	strbvs	r6, [lr, -r4, ror #18]!

00001b34 <Code_422>:
    1b34:	b50f      	push	{r0, r1, r2, r3, lr}
    1b36:	2eff      	cmp	r6, #255	; 0xff
    1b38:	d804      	bhi.n	1b44 <Code_422+0x10>
    1b3a:	f847 6d04 	str.w	r6, [r7, #-4]!
    1b3e:	f05f 36ff 	movs.w	r6, #4294967295
    1b42:	bd0f      	pop	{r0, r1, r2, r3, pc}
    1b44:	f016 10ff 	ands.w	r0, r6, #16711935	; 0xff00ff
    1b48:	42b0      	cmp	r0, r6
    1b4a:	d10e      	bne.n	1b6a <Code_422+0x36>
    1b4c:	f64f 71ff 	movw	r1, #65535	; 0xffff
    1b50:	4008      	ands	r0, r1
    1b52:	0c31      	lsrs	r1, r6, #16
    1b54:	4281      	cmp	r1, r0
    1b56:	d108      	bne.n	1b6a <Code_422+0x36>
    1b58:	f016 06ff 	ands.w	r6, r6, #255	; 0xff
    1b5c:	f456 5680 	orrs.w	r6, r6, #4096	; 0x1000
    1b60:	f847 6d04 	str.w	r6, [r7, #-4]!
    1b64:	f05f 36ff 	movs.w	r6, #4294967295
    1b68:	bd0f      	pop	{r0, r1, r2, r3, pc}
    1b6a:	f016 20ff 	ands.w	r0, r6, #4278255360	; 0xff00ff00
    1b6e:	42b0      	cmp	r0, r6
    1b70:	d10f      	bne.n	1b92 <Code_422+0x5e>
    1b72:	f64f 71ff 	movw	r1, #65535	; 0xffff
    1b76:	4008      	ands	r0, r1
    1b78:	0c31      	lsrs	r1, r6, #16
    1b7a:	4281      	cmp	r1, r0
    1b7c:	d109      	bne.n	1b92 <Code_422+0x5e>
    1b7e:	0a36      	lsrs	r6, r6, #8
    1b80:	f016 06ff 	ands.w	r6, r6, #255	; 0xff
    1b84:	f456 5600 	orrs.w	r6, r6, #8192	; 0x2000
    1b88:	f847 6d04 	str.w	r6, [r7, #-4]!
    1b8c:	f05f 36ff 	movs.w	r6, #4294967295
    1b90:	bd0f      	pop	{r0, r1, r2, r3, pc}
    1b92:	22ff      	movs	r2, #255	; 0xff
    1b94:	0031      	movs	r1, r6
    1b96:	4011      	ands	r1, r2
    1b98:	0a30      	lsrs	r0, r6, #8
    1b9a:	4010      	ands	r0, r2
    1b9c:	4288      	cmp	r0, r1
    1b9e:	d110      	bne.n	1bc2 <Code_422+0x8e>
    1ba0:	0c30      	lsrs	r0, r6, #16
    1ba2:	4010      	ands	r0, r2
    1ba4:	4288      	cmp	r0, r1
    1ba6:	d10c      	bne.n	1bc2 <Code_422+0x8e>
    1ba8:	0e30      	lsrs	r0, r6, #24
    1baa:	4010      	ands	r0, r2
    1bac:	4288      	cmp	r0, r1
    1bae:	d108      	bne.n	1bc2 <Code_422+0x8e>
    1bb0:	f016 06ff 	ands.w	r6, r6, #255	; 0xff
    1bb4:	f456 5640 	orrs.w	r6, r6, #12288	; 0x3000
    1bb8:	f847 6d04 	str.w	r6, [r7, #-4]!
    1bbc:	f05f 36ff 	movs.w	r6, #4294967295
    1bc0:	bd0f      	pop	{r0, r1, r2, r3, pc}
    1bc2:	0030      	movs	r0, r6
    1bc4:	2100      	movs	r1, #0
    1bc6:	3101      	adds	r1, #1
    1bc8:	1800      	adds	r0, r0, r0
    1bca:	f150 0000 	adcs.w	r0, r0, #0
    1bce:	f07f 027f 	mvns.w	r2, #127	; 0x7f
    1bd2:	4002      	ands	r2, r0
    1bd4:	2a80      	cmp	r2, #128	; 0x80
    1bd6:	d005      	beq.n	1be4 <Code_422+0xb0>
    1bd8:	291f      	cmp	r1, #31
    1bda:	d3f4      	bcc.n	1bc6 <Code_422+0x92>
    1bdc:	f847 6d04 	str.w	r6, [r7, #-4]!
    1be0:	2600      	movs	r6, #0
    1be2:	bd0f      	pop	{r0, r1, r2, r3, pc}
    1be4:	2908      	cmp	r1, #8
    1be6:	d3f9      	bcc.n	1bdc <Code_422+0xa8>
    1be8:	0006      	movs	r6, r0
    1bea:	f036 0680 	bics.w	r6, r6, #128	; 0x80
    1bee:	f011 0001 	ands.w	r0, r1, #1
    1bf2:	01c0      	lsls	r0, r0, #7
    1bf4:	4306      	orrs	r6, r0
    1bf6:	f011 000e 	ands.w	r0, r1, #14
    1bfa:	02c0      	lsls	r0, r0, #11
    1bfc:	4306      	orrs	r6, r0
    1bfe:	f011 0010 	ands.w	r0, r1, #16
    1c02:	0580      	lsls	r0, r0, #22
    1c04:	4306      	orrs	r6, r0
    1c06:	f847 6d04 	str.w	r6, [r7, #-4]!
    1c0a:	f05f 36ff 	movs.w	r6, #4294967295
    1c0e:	bd0f      	pop	{r0, r1, r2, r3, pc}

00001c10 <movwkomma>:
    1c10:	f847 6d04 	str.w	r6, [r7, #-4]!
    1c14:	f8df 663c 	ldr.w	r6, [pc, #1596]	; 2254 <setflags_ram+0x1c>
    1c18:	f45f 4170 	movs.w	r1, #61440	; 0xf000
    1c1c:	ea10 0201 	ands.w	r2, r0, r1
    1c20:	0112      	lsls	r2, r2, #4
    1c22:	4316      	orrs	r6, r2
    1c24:	f45f 6100 	movs.w	r1, #2048	; 0x800
    1c28:	ea10 0201 	ands.w	r2, r0, r1
    1c2c:	03d2      	lsls	r2, r2, #15
    1c2e:	4316      	orrs	r6, r2
    1c30:	f45f 61e0 	movs.w	r1, #1792	; 0x700
    1c34:	ea10 0201 	ands.w	r2, r0, r1
    1c38:	0112      	lsls	r2, r2, #4
    1c3a:	4316      	orrs	r6, r2
    1c3c:	21ff      	movs	r1, #255	; 0xff
    1c3e:	ea10 0201 	ands.w	r2, r0, r1
    1c42:	4316      	orrs	r6, r2
    1c44:	431e      	orrs	r6, r3
    1c46:	e3aa      	b.n	239e <Code_568>

00001c48 <movtkomma>:
    1c48:	f847 6d04 	str.w	r6, [r7, #-4]!
    1c4c:	f8df 6608 	ldr.w	r6, [pc, #1544]	; 2258 <setflags_ram+0x20>
    1c50:	f05f 4170 	movs.w	r1, #4026531840	; 0xf0000000
    1c54:	ea10 0201 	ands.w	r2, r0, r1
    1c58:	0b12      	lsrs	r2, r2, #12
    1c5a:	4316      	orrs	r6, r2
    1c5c:	f05f 6100 	movs.w	r1, #134217728	; 0x8000000
    1c60:	ea10 0201 	ands.w	r2, r0, r1
    1c64:	0852      	lsrs	r2, r2, #1
    1c66:	4316      	orrs	r6, r2
    1c68:	f05f 61e0 	movs.w	r1, #117440512	; 0x7000000
    1c6c:	ea10 0201 	ands.w	r2, r0, r1
    1c70:	0b12      	lsrs	r2, r2, #12
    1c72:	4316      	orrs	r6, r2
    1c74:	f45f 017f 	movs.w	r1, #16711680	; 0xff0000
    1c78:	ea10 0201 	ands.w	r2, r0, r1
    1c7c:	0c12      	lsrs	r2, r2, #16
    1c7e:	4316      	orrs	r6, r2
    1c80:	431e      	orrs	r6, r3
    1c82:	e38c      	b.n	239e <Code_568>

00001c84 <Dictionary_431>:
    1c84:	00001cea 	andeq	r1, r0, sl, ror #25
    1c88:	72100000 	andsvc	r0, r0, #0
    1c8c:	73696765 	cmnvc	r9, #26476544	; 0x1940000
    1c90:	6c726574 	cfldr64vs	mvdx6, [r2], #-464	; 0xfffffe30
    1c94:	72657469 	rsbvc	r7, r5, #1761607680	; 0x69000000
    1c98:	002c6c61 	eoreq	r6, ip, r1, ror #24

00001c9c <Code_431>:
    1c9c:	b50f      	push	{r0, r1, r2, r3, lr}
    1c9e:	0033      	movs	r3, r6
    1ca0:	cf40      	ldmia	r7!, {r6}
    1ca2:	021b      	lsls	r3, r3, #8
    1ca4:	2eff      	cmp	r6, #255	; 0xff
    1ca6:	d805      	bhi.n	1cb4 <Code_431+0x18>
    1ca8:	f456 5600 	orrs.w	r6, r6, #8192	; 0x2000
    1cac:	431e      	orrs	r6, r3
    1cae:	f000 fb4d 	bl	234c <Code_559>
    1cb2:	bd0f      	pop	{r0, r1, r2, r3, pc}
    1cb4:	f7ff ff3e 	bl	1b34 <Code_422>
    1cb8:	2e00      	cmp	r6, #0
    1cba:	cf40      	ldmia	r7!, {r6}
    1cbc:	d006      	beq.n	1ccc <Code_431+0x30>
    1cbe:	f8df 059c 	ldr.w	r0, [pc, #1436]	; 225c <setflags_ram+0x24>
    1cc2:	4306      	orrs	r6, r0
    1cc4:	431e      	orrs	r6, r3
    1cc6:	f000 fb6a 	bl	239e <Code_568>
    1cca:	bd0f      	pop	{r0, r1, r2, r3, pc}
    1ccc:	43f6      	mvns	r6, r6
    1cce:	f7ff ff31 	bl	1b34 <Code_422>
    1cd2:	2e00      	cmp	r6, #0
    1cd4:	cf40      	ldmia	r7!, {r6}
    1cd6:	d006      	beq.n	1ce6 <Code_431+0x4a>
    1cd8:	f8df 0584 	ldr.w	r0, [pc, #1412]	; 2260 <setflags_ram+0x28>
    1cdc:	4306      	orrs	r6, r0
    1cde:	431e      	orrs	r6, r3
    1ce0:	f000 fb5d 	bl	239e <Code_568>
    1ce4:	bd0f      	pop	{r0, r1, r2, r3, pc}
    1ce6:	43f6      	mvns	r6, r6
    1ce8:	e00b      	b.n	1d02 <movwmovt_register_r3>

00001cea <Dictionary_435>:
    1cea:	00001d4a 	andeq	r1, r0, sl, asr #26
    1cee:	6d090000 	stcvs	0, cr0, [r9, #-0]
    1cf2:	6d77766f 	ldclvs	6, cr7, [r7, #-444]!	; 0xfffffe44
    1cf6:	2c74766f 	ldclcs	6, cr7, [r4], #-444	; 0xfffffe44

00001cfa <Code_435>:
    1cfa:	b50f      	push	{r0, r1, r2, r3, lr}
    1cfc:	0033      	movs	r3, r6
    1cfe:	cf40      	ldmia	r7!, {r6}
    1d00:	021b      	lsls	r3, r3, #8

00001d02 <movwmovt_register_r3>:
    1d02:	0030      	movs	r0, r6
    1d04:	cf40      	ldmia	r7!, {r6}
    1d06:	f7ff ff83 	bl	1c10 <movwkomma>
    1d0a:	f64f 71ff 	movw	r1, #65535	; 0xffff
    1d0e:	ea10 4001 	ands.w	r0, r0, r1, lsl #16
    1d12:	d001      	beq.n	1d18 <movwmovt_register_r3+0x16>
    1d14:	f7ff ff98 	bl	1c48 <movtkomma>
    1d18:	bd0f      	pop	{r0, r1, r2, r3, pc}

00001d1a <callkommalang>:
    1d1a:	b50f      	push	{r0, r1, r2, r3, lr}
    1d1c:	3601      	adds	r6, #1
    1d1e:	0030      	movs	r0, r6
    1d20:	cf40      	ldmia	r7!, {r6}
    1d22:	2300      	movs	r3, #0
    1d24:	f7ff ff74 	bl	1c10 <movwkomma>
    1d28:	f7ff ff8e 	bl	1c48 <movtkomma>
    1d2c:	e006      	b.n	1d3c <callkommakurz_intern>

00001d2e <callkommakurz>:
    1d2e:	b50f      	push	{r0, r1, r2, r3, lr}
    1d30:	3601      	adds	r6, #1
    1d32:	f847 6d04 	str.w	r6, [r7, #-4]!
    1d36:	2600      	movs	r6, #0
    1d38:	f7ff ffb0 	bl	1c9c <Code_431>

00001d3c <callkommakurz_intern>:
    1d3c:	f847 6d04 	str.w	r6, [r7, #-4]!
    1d40:	f244 7680 	movw	r6, #18304	; 0x4780
    1d44:	f000 fb02 	bl	234c <Code_559>
    1d48:	bd0f      	pop	{r0, r1, r2, r3, pc}

00001d4a <Dictionary_443>:
    1d4a:	00001db0 			; <UNDEFINED> instruction: 0x00001db0
    1d4e:	63050000 	movwvs	r0, #20480	; 0x5000
    1d52:	2c6c6c61 	stclcs	12, cr6, [ip], #-388	; 0xfffffe7c

00001d56 <Code_443>:
    1d56:	b50f      	push	{r0, r1, r2, r3, lr}
    1d58:	0033      	movs	r3, r6
    1d5a:	f000 fe43 	bl	29e4 <Code_675>
    1d5e:	0030      	movs	r0, r6
    1d60:	cf40      	ldmia	r7!, {r6}
    1d62:	1a1b      	subs	r3, r3, r0
    1d64:	3b04      	subs	r3, #4
    1d66:	f8df 14fc 	ldr.w	r1, [pc, #1276]	; 2264 <setflags_ram+0x2c>
    1d6a:	4019      	ands	r1, r3
    1d6c:	2900      	cmp	r1, #0
    1d6e:	d006      	beq.n	1d7e <Code_443+0x28>
    1d70:	f8df 24f4 	ldr.w	r2, [pc, #1268]	; 2268 <setflags_ram+0x30>
    1d74:	4291      	cmp	r1, r2
    1d76:	d002      	beq.n	1d7e <Code_443+0x28>
    1d78:	e8bd 400f 	ldmia.w	sp!, {r0, r1, r2, r3, lr}
    1d7c:	e7d7      	b.n	1d2e <callkommakurz>
    1d7e:	cf40      	ldmia	r7!, {r6}
    1d80:	085b      	lsrs	r3, r3, #1
    1d82:	f8df 04e8 	ldr.w	r0, [pc, #1256]	; 226c <setflags_ram+0x34>
    1d86:	f240 71ff 	movw	r1, #2047	; 0x7ff
    1d8a:	4019      	ands	r1, r3
    1d8c:	4308      	orrs	r0, r1
    1d8e:	0adb      	lsrs	r3, r3, #11
    1d90:	f240 31ff 	movw	r1, #1023	; 0x3ff
    1d94:	4019      	ands	r1, r3
    1d96:	0409      	lsls	r1, r1, #16
    1d98:	4308      	orrs	r0, r1
    1d9a:	0a9b      	lsrs	r3, r3, #10
    1d9c:	f013 0101 	ands.w	r1, r3, #1
    1da0:	0689      	lsls	r1, r1, #26
    1da2:	4308      	orrs	r0, r1
    1da4:	f847 6d04 	str.w	r6, [r7, #-4]!
    1da8:	0006      	movs	r6, r0
    1daa:	f000 faf8 	bl	239e <Code_568>
    1dae:	bd0f      	pop	{r0, r1, r2, r3, pc}

00001db0 <Dictionary_448>:
    1db0:	00001de6 	andeq	r1, r0, r6, ror #27
    1db4:	6c080000 	stcvs	0, cr0, [r8], {-0}
    1db8:	72657469 	rsbvc	r7, r5, #1761607680	; 0x69000000
    1dbc:	002c6c61 	eoreq	r6, ip, r1, ror #24

00001dc0 <Code_448>:
    1dc0:	b508      	push	{r3, lr}
    1dc2:	f847 6d04 	str.w	r6, [r7, #-4]!
    1dc6:	f64f 0647 	movw	r6, #63559	; 0xf847
    1dca:	f000 fabf 	bl	234c <Code_559>
    1dce:	f847 6d04 	str.w	r6, [r7, #-4]!
    1dd2:	f646 5604 	movw	r6, #27908	; 0x6d04
    1dd6:	f000 fab9 	bl	234c <Code_559>
    1dda:	f847 6d04 	str.w	r6, [r7, #-4]!
    1dde:	2606      	movs	r6, #6
    1de0:	f7ff ff5c 	bl	1c9c <Code_431>
    1de4:	bd08      	pop	{r3, pc}

00001de6 <Dictionary_455>:
    1de6:	00001e0a 	andeq	r1, r0, sl, lsl #28
    1dea:	63060000 	movwvs	r0, #24576	; 0x6000
    1dee:	74616572 	strbtvc	r6, [r1], #-1394	; 0x572
    1df2:	b5000065 	strlt	r0, [r0, #-101]	; 0x65

00001df4 <Code_455>:
    1df4:	b500      	push	{lr}
    1df6:	f000 f833 	bl	1e60 <Code_460>
    1dfa:	f641 6027 	movw	r0, #7719	; 0x1e27
    1dfe:	4780      	blx	r0
    1e00:	f847 6d04 	str.w	r6, [r7, #-4]!
    1e04:	f1be 0601 	subs.w	r6, lr, #1
    1e08:	bd00      	pop	{pc}

00001e0a <Dictionary_457>:
    1e0a:	00001e52 	andeq	r1, r0, r2, asr lr
    1e0e:	64050020 	strvs	r0, [r5], #-32
    1e12:	3e73656f 	cdpcc	5, 7, cr6, cr3, cr15, {3}

00001e16 <Code_457>:
    1e16:	f641 6027 	movw	r0, #7719	; 0x1e27
    1e1a:	4780      	blx	r0
    1e1c:	f847 6d04 	str.w	r6, [r7, #-4]!
    1e20:	f1be 0601 	subs.w	r6, lr, #1
    1e24:	4770      	bx	lr

00001e26 <dodoes>:
    1e26:	f847 6d04 	str.w	r6, [r7, #-4]!
    1e2a:	f1be 0601 	subs.w	r6, lr, #1
    1e2e:	f8df 2440 	ldr.w	r2, [pc, #1088]	; 2270 <setflags_ram+0x38>
    1e32:	6813      	ldr	r3, [r2, #0]
    1e34:	f8df 143c 	ldr.w	r1, [pc, #1084]	; 2274 <setflags_ram+0x3c>
    1e38:	6809      	ldr	r1, [r1, #0]
    1e3a:	2002      	movs	r0, #2
    1e3c:	4008      	ands	r0, r1
    1e3e:	d000      	beq.n	1e42 <dodoes+0x1c>
    1e40:	3102      	adds	r1, #2
    1e42:	3102      	adds	r1, #2
    1e44:	6011      	str	r1, [r2, #0]
    1e46:	f7ff ff68 	bl	1d1a <callkommalang>
    1e4a:	6013      	str	r3, [r2, #0]
    1e4c:	f000 f9b7 	bl	21be <Code_536>
    1e50:	bd00      	pop	{pc}

00001e52 <Dictionary_460>:
    1e52:	00001e94 	muleq	r0, r4, lr
    1e56:	3c070000 	stccc	0, cr0, [r7], {-0}
    1e5a:	6c697562 	cfstr64vs	mvdx7, [r9], #-392	; 0xfffffe78
    1e5e:	b5007364 	strlt	r7, [r0, #-868]	; 0x364

00001e60 <Code_460>:
    1e60:	b500      	push	{lr}
    1e62:	f000 fb77 	bl	2554 <Code_590>
    1e66:	f000 fdbd 	bl	29e4 <Code_675>
    1e6a:	2002      	movs	r0, #2
    1e6c:	4006      	ands	r6, r0
    1e6e:	cf40      	ldmia	r7!, {r6}
    1e70:	d004      	beq.n	1e7c <Code_460+0x1c>
    1e72:	f847 6d04 	str.w	r6, [r7, #-4]!
    1e76:	2636      	movs	r6, #54	; 0x36
    1e78:	f000 fa68 	bl	234c <Code_559>
    1e7c:	f847 6d04 	str.w	r6, [r7, #-4]!
    1e80:	f24b 5600 	movw	r6, #46336	; 0xb500
    1e84:	f000 fa62 	bl	234c <Code_559>
    1e88:	f847 6d04 	str.w	r6, [r7, #-4]!
    1e8c:	260a      	movs	r6, #10
    1e8e:	f000 fac9 	bl	2424 <Code_579>
    1e92:	bd00      	pop	{pc}

00001e94 <Dictionary_468>:
    1e94:	00001ea0 	andeq	r1, r0, r0, lsr #29
    1e98:	5b030050 	blpl	c1fe0 <BIT19+0x41fe0>
    1e9c:	e0035d27 	and	r5, r3, r7, lsr #26

00001e9e <Code_468>:
    1e9e:	e003      	b.n	1ea8 <Code_469>

00001ea0 <Dictionary_469>:
    1ea0:	00001eb8 			; <UNDEFINED> instruction: 0x00001eb8
    1ea4:	27010000 	strcs	r0, [r1, -r0]

00001ea8 <Code_469>:
    1ea8:	b500      	push	{lr}
    1eaa:	f001 f859 	bl	2f60 <Code_813>
    1eae:	f000 fd3f 	bl	2930 <find_not_found>
    1eb2:	0030      	movs	r0, r6
    1eb4:	cf40      	ldmia	r7!, {r6}
    1eb6:	bd00      	pop	{pc}

00001eb8 <Dictionary_471>:
    1eb8:	00001ef6 	strdeq	r1, [r0], -r6
    1ebc:	70080010 	andvc	r0, r8, r0, lsl r0
    1ec0:	7074736f 	rsbsvc	r7, r4, pc, ror #6
    1ec4:	00656e6f 	rsbeq	r6, r5, pc, ror #28

00001ec8 <Code_471>:
    1ec8:	b500      	push	{lr}
    1eca:	f7ff ffed 	bl	1ea8 <Code_469>
    1ece:	2110      	movs	r1, #16
    1ed0:	4001      	ands	r1, r0
    1ed2:	d10d      	bne.n	1ef0 <Code_471+0x28>
    1ed4:	2120      	movs	r1, #32
    1ed6:	4001      	ands	r1, r0
    1ed8:	d005      	beq.n	1ee6 <Code_471+0x1e>
    1eda:	f7ff ff71 	bl	1dc0 <Code_448>
    1ede:	f847 6d04 	str.w	r6, [r7, #-4]!
    1ee2:	4ee5      	ldr	r6, [pc, #916]	; (2278 <setflags_ram+0x40>)
    1ee4:	e004      	b.n	1ef0 <Code_471+0x28>
    1ee6:	f7ff ff6b 	bl	1dc0 <Code_448>
    1eea:	f847 6d04 	str.w	r6, [r7, #-4]!
    1eee:	4ee3      	ldr	r6, [pc, #908]	; (227c <setflags_ram+0x44>)
    1ef0:	f7ff ff31 	bl	1d56 <Code_443>
    1ef4:	bd00      	pop	{pc}

00001ef6 <Dictionary_474>:
    1ef6:	00001f4c 	andeq	r1, r0, ip, asr #30
    1efa:	69070000 	stmdbvs	r7, {}	; <UNPREDICTABLE>
    1efe:	6e696c6e 	cdpvs	12, 6, cr6, cr9, cr14, {3}
    1f02:	b5002c65 	strlt	r2, [r0, #-3173]	; 0xc65

00001f04 <Code_474>:
    1f04:	b500      	push	{lr}
    1f06:	f24b 5100 	movw	r1, #46336	; 0xb500
    1f0a:	f64b 5200 	movw	r2, #48384	; 0xbd00
    1f0e:	f244 7370 	movw	r3, #18288	; 0x4770
    1f12:	8830      	ldrh	r0, [r6, #0]
    1f14:	4288      	cmp	r0, r1
    1f16:	d008      	beq.n	1f2a <Code_474+0x26>
    1f18:	4290      	cmp	r0, r2
    1f1a:	d008      	beq.n	1f2e <Code_474+0x2a>
    1f1c:	4298      	cmp	r0, r3
    1f1e:	d006      	beq.n	1f2e <Code_474+0x2a>
    1f20:	f847 6d04 	str.w	r6, [r7, #-4]!
    1f24:	0006      	movs	r6, r0
    1f26:	f000 fa11 	bl	234c <Code_559>
    1f2a:	3602      	adds	r6, #2
    1f2c:	e7f1      	b.n	1f12 <Code_474+0xe>
    1f2e:	cf40      	ldmia	r7!, {r6}
    1f30:	bd00      	pop	{pc}

00001f32 <suchedefinitionsende>:
    1f32:	b40e      	push	{r1, r2, r3}
    1f34:	f64b 5200 	movw	r2, #48384	; 0xbd00
    1f38:	f244 7370 	movw	r3, #18288	; 0x4770
    1f3c:	8801      	ldrh	r1, [r0, #0]
    1f3e:	3002      	adds	r0, #2
    1f40:	4291      	cmp	r1, r2
    1f42:	d001      	beq.n	1f48 <suchedefinitionsende+0x16>
    1f44:	4299      	cmp	r1, r3
    1f46:	d1f9      	bne.n	1f3c <suchedefinitionsende+0xa>
    1f48:	bc0e      	pop	{r1, r2, r3}
    1f4a:	4770      	bx	lr

00001f4c <Dictionary_478>:
    1f4c:	00001f62 	andeq	r1, r0, r2, ror #30
    1f50:	72040000 	andvc	r0, r4, #0
    1f54:	002c7465 	eoreq	r7, ip, r5, ror #8

00001f58 <Code_478>:
    1f58:	f847 6d04 	str.w	r6, [r7, #-4]!
    1f5c:	f64b 5600 	movw	r6, #48384	; 0xbd00
    1f60:	e1f4      	b.n	234c <Code_559>

00001f62 <Dictionary_481>:
    1f62:	00001f70 	andeq	r1, r0, r0, ror pc
    1f66:	65040030 	strvs	r0, [r4, #-48]	; 0x30
    1f6a:	00746978 	rsbseq	r6, r4, r8, ror r9

00001f6e <Code_481>:
    1f6e:	e7f3      	b.n	1f58 <Code_478>

00001f70 <Dictionary_482>:
    1f70:	00001f88 	andeq	r1, r0, r8, lsl #31
    1f74:	72070030 	andvc	r0, r7, #48	; 0x30
    1f78:	72756365 	rsbsvc	r6, r5, #-1811939327	; 0x94000001
    1f7c:	f8476573 			; <UNDEFINED> instruction: 0xf8476573

00001f7e <Code_482>:
    1f7e:	f847 6d04 	str.w	r6, [r7, #-4]!
    1f82:	4ebc      	ldr	r6, [pc, #752]	; (2274 <setflags_ram+0x3c>)
    1f84:	6836      	ldr	r6, [r6, #0]
    1f86:	e6e6      	b.n	1d56 <Code_443>

00001f88 <Dictionary_484>:
    1f88:	00001fa0 	andeq	r1, r0, r0, lsr #31
    1f8c:	73050081 	movwvc	r0, #20609	; 0x5081
    1f90:	65746174 	ldrbvs	r6, [r4, #-372]!	; 0x174

00001f94 <Code_484>:
    1f94:	f847 6d04 	str.w	r6, [r7, #-4]!
    1f98:	4eb9      	ldr	r6, [pc, #740]	; (2280 <setflags_ram+0x48>)
    1f9a:	4770      	bx	lr
    1f9c:	00000000 	andeq	r0, r0, r0

00001fa0 <Dictionary_487>:
    1fa0:	00001fb2 			; <UNDEFINED> instruction: 0x00001fb2
    1fa4:	5d010000 	stcpl	0, cr0, [r1, #-0]

00001fa8 <Code_487>:
    1fa8:	48b5      	ldr	r0, [pc, #724]	; (2280 <setflags_ram+0x48>)
    1faa:	2100      	movs	r1, #0
    1fac:	43c9      	mvns	r1, r1
    1fae:	6001      	str	r1, [r0, #0]
    1fb0:	4770      	bx	lr

00001fb2 <Dictionary_488>:
    1fb2:	00001fc2 	andeq	r1, r0, r2, asr #31
    1fb6:	5b010010 	blpl	41ffe <BIT18+0x1ffe>

00001fba <Code_488>:
    1fba:	48b1      	ldr	r0, [pc, #708]	; (2280 <setflags_ram+0x48>)
    1fbc:	2100      	movs	r1, #0
    1fbe:	6001      	str	r1, [r0, #0]
    1fc0:	4770      	bx	lr

00001fc2 <Dictionary_489>:
    1fc2:	00001fea 	andeq	r1, r0, sl, ror #31
    1fc6:	3a010000 	bcc	41fce <BIT18+0x1fce>

00001fca <Code_489>:
    1fca:	b500      	push	{lr}
    1fcc:	48ad      	ldr	r0, [pc, #692]	; (2284 <setflags_ram+0x4c>)
    1fce:	6007      	str	r7, [r0, #0]
    1fd0:	f000 fac0 	bl	2554 <Code_590>
    1fd4:	f847 6d04 	str.w	r6, [r7, #-4]!
    1fd8:	f24b 5600 	movw	r6, #46336	; 0xb500
    1fdc:	f000 f9b6 	bl	234c <Code_559>
    1fe0:	48a7      	ldr	r0, [pc, #668]	; (2280 <setflags_ram+0x48>)
    1fe2:	2100      	movs	r1, #0
    1fe4:	43c9      	mvns	r1, r1
    1fe6:	6001      	str	r1, [r0, #0]
    1fe8:	bd00      	pop	{pc}

00001fea <Dictionary_492>:
    1fea:	00002032 	andeq	r2, r0, r2, lsr r0
    1fee:	3b010030 	blcc	420b6 <BIT18+0x20b6>

00001ff2 <Code_492>:
    1ff2:	b500      	push	{lr}
    1ff4:	48a3      	ldr	r0, [pc, #652]	; (2284 <setflags_ram+0x4c>)
    1ff6:	6801      	ldr	r1, [r0, #0]
    1ff8:	42b9      	cmp	r1, r7
    1ffa:	d00e      	beq.n	201a <BIT13+0x1a>
    1ffc:	f7ff fc53 	bl	18a6 <dotgaensefuesschen>
    2000:	74532015 	ldrbvc	r2, [r3], #-21
    2004:	206b6361 	rsbcs	r6, fp, r1, ror #6
    2008:	20746f6e 	rsbscs	r6, r4, lr, ror #30
    200c:	616c6162 	cmnvs	ip, r2, ror #2
    2010:	6465636e 	strbtvs	r6, [r5], #-878	; 0x36e
    2014:	f0010a2e 			; <UNDEFINED> instruction: 0xf0010a2e
    2018:	bb29      	cbnz	r1, 2066 <Dictionary_501+0x8>
    201a:	f847 6d04 	str.w	r6, [r7, #-4]!
    201e:	f64b 5600 	movw	r6, #48384	; 0xbd00
    2022:	f000 f993 	bl	234c <Code_559>
    2026:	f000 f8ca 	bl	21be <Code_536>
    202a:	4895      	ldr	r0, [pc, #596]	; (2280 <setflags_ram+0x48>)
    202c:	2100      	movs	r1, #0
    202e:	6001      	str	r1, [r0, #0]
    2030:	bd00      	pop	{pc}

00002032 <Dictionary_496>:
    2032:	00002046 	andeq	r2, r0, r6, asr #32
    2036:	65070000 	strvs	r0, [r7, #-0]
    203a:	75636578 	strbvc	r6, [r3, #-1400]!	; 0x578
    203e:	00306574 	eorseq	r6, r0, r4, ror r5

00002040 <Code_496>:
    2040:	0030      	movs	r0, r6
    2042:	cf40      	ldmia	r7!, {r6}
    2044:	4687      	mov	pc, r0

00002046 <Dictionary_498>:
    2046:	0000205e 	andeq	r2, r0, lr, asr r0
    204a:	69090010 	stmdbvs	r9, {r4}
    204e:	64656d6d 	strbtvs	r6, [r5], #-3437	; 0xd6d
    2052:	65746169 	ldrbvs	r6, [r4, #-361]!	; 0x169

00002056 <Code_498>:
    2056:	f847 6d04 	str.w	r6, [r7, #-4]!
    205a:	2610      	movs	r6, #16
    205c:	e0df      	b.n	221e <Code_542>

0000205e <Dictionary_501>:
    205e:	00002074 	andeq	r2, r0, r4, ror r0
    2062:	69060010 	stmdbvs	r6, {r4}
    2066:	6e696c6e 	cdpvs	12, 6, cr6, cr9, cr14, {3}
    206a:	f8470065 			; <UNDEFINED> instruction: 0xf8470065

0000206c <Code_501>:
    206c:	f847 6d04 	str.w	r6, [r7, #-4]!
    2070:	2620      	movs	r6, #32
    2072:	e0d4      	b.n	221e <Code_542>

00002074 <Dictionary_504>:
    2074:	0000208e 	andeq	r2, r0, lr, lsl #1
    2078:	630b0010 	movwvs	r0, #45072	; 0xb010
    207c:	69706d6f 	ldmdbvs	r0!, {r0, r1, r2, r3, r5, r6, r8, sl, fp, sp, lr}^
    2080:	6e6f656c 	cdpvs	5, 6, cr6, cr15, cr12, {3}
    2084:	f847796c 			; <UNDEFINED> instruction: 0xf847796c

00002086 <Code_504>:
    2086:	f847 6d04 	str.w	r6, [r7, #-4]!
    208a:	2630      	movs	r6, #48	; 0x30
    208c:	e0c7      	b.n	221e <Code_542>

0000208e <Dictionary_507>:
    208e:	000020a8 	andeq	r2, r0, r8, lsr #1
    2092:	300a0010 	andcc	r0, sl, r0, lsl r0
    2096:	6c6f662d 	stclvs	6, cr6, [pc], #-180	; 1fe8 <Code_489+0x1e>
    209a:	6c626164 	stfvse	f6, [r2], #-400	; 0xfffffe70
    209e:	f8470065 			; <UNDEFINED> instruction: 0xf8470065

000020a0 <Code_507>:
    20a0:	f847 6d04 	str.w	r6, [r7, #-4]!
    20a4:	2640      	movs	r6, #64	; 0x40
    20a6:	e0ba      	b.n	221e <Code_542>

000020a8 <Dictionary_510>:
    20a8:	000020c2 	andeq	r2, r0, r2, asr #1
    20ac:	310a0010 	tstcc	sl, r0, lsl r0
    20b0:	6c6f662d 	stclvs	6, cr6, [pc], #-180	; 2004 <BIT13+0x4>
    20b4:	6c626164 	stfvse	f6, [r2], #-400	; 0xfffffe70
    20b8:	f8470065 			; <UNDEFINED> instruction: 0xf8470065

000020ba <Code_510>:
    20ba:	f847 6d04 	str.w	r6, [r7, #-4]!
    20be:	2641      	movs	r6, #65	; 0x41
    20c0:	e0ad      	b.n	221e <Code_542>

000020c2 <Dictionary_513>:
    20c2:	000020dc 	ldrdeq	r2, [r0], -ip
    20c6:	320a0010 	andcc	r0, sl, #16
    20ca:	6c6f662d 	stclvs	6, cr6, [pc], #-180	; 201c <BIT13+0x1c>
    20ce:	6c626164 	stfvse	f6, [r2], #-400	; 0xfffffe70
    20d2:	f8470065 			; <UNDEFINED> instruction: 0xf8470065

000020d4 <Code_513>:
    20d4:	f847 6d04 	str.w	r6, [r7, #-4]!
    20d8:	2642      	movs	r6, #66	; 0x42
    20da:	e0a0      	b.n	221e <Code_542>

000020dc <Dictionary_516>:
    20dc:	000020f6 	strdeq	r2, [r0], -r6
    20e0:	330a0010 	movwcc	r0, #40976	; 0xa010
    20e4:	6c6f662d 	stclvs	6, cr6, [pc], #-180	; 2038 <Dictionary_496+0x6>
    20e8:	6c626164 	stfvse	f6, [r2], #-400	; 0xfffffe70
    20ec:	f8470065 			; <UNDEFINED> instruction: 0xf8470065

000020ee <Code_516>:
    20ee:	f847 6d04 	str.w	r6, [r7, #-4]!
    20f2:	2643      	movs	r6, #67	; 0x43
    20f4:	e093      	b.n	221e <Code_542>

000020f6 <Dictionary_519>:
    20f6:	00002110 	andeq	r2, r0, r0, lsl r1
    20fa:	340a0010 	strcc	r0, [sl], #-16
    20fe:	6c6f662d 	stclvs	6, cr6, [pc], #-180	; 2050 <Dictionary_498+0xa>
    2102:	6c626164 	stfvse	f6, [r2], #-400	; 0xfffffe70
    2106:	f8470065 			; <UNDEFINED> instruction: 0xf8470065

00002108 <Code_519>:
    2108:	f847 6d04 	str.w	r6, [r7, #-4]!
    210c:	2644      	movs	r6, #68	; 0x44
    210e:	e086      	b.n	221e <Code_542>

00002110 <Dictionary_522>:
    2110:	0000212a 	andeq	r2, r0, sl, lsr #2
    2114:	350a0010 	strcc	r0, [sl, #-16]
    2118:	6c6f662d 	stclvs	6, cr6, [pc], #-180	; 206c <Code_501>
    211c:	6c626164 	stfvse	f6, [r2], #-400	; 0xfffffe70
    2120:	f8470065 			; <UNDEFINED> instruction: 0xf8470065

00002122 <Code_522>:
    2122:	f847 6d04 	str.w	r6, [r7, #-4]!
    2126:	2645      	movs	r6, #69	; 0x45
    2128:	e079      	b.n	221e <Code_542>

0000212a <Dictionary_525>:
    212a:	00002144 	andeq	r2, r0, r4, asr #2
    212e:	360a0010 			; <UNDEFINED> instruction: 0x360a0010
    2132:	6c6f662d 	stclvs	6, cr6, [pc], #-180	; 2084 <Dictionary_504+0x10>
    2136:	6c626164 	stfvse	f6, [r2], #-400	; 0xfffffe70
    213a:	f8470065 			; <UNDEFINED> instruction: 0xf8470065

0000213c <Code_525>:
    213c:	f847 6d04 	str.w	r6, [r7, #-4]!
    2140:	2646      	movs	r6, #70	; 0x46
    2142:	e06c      	b.n	221e <Code_542>

00002144 <Dictionary_528>:
    2144:	0000215e 	andeq	r2, r0, lr, asr r1
    2148:	370a0010 	smladcc	sl, r0, r0, r0
    214c:	6c6f662d 	stclvs	6, cr6, [pc], #-180	; 20a0 <Code_507>
    2150:	6c626164 	stfvse	f6, [r2], #-400	; 0xfffffe70
    2154:	f8470065 			; <UNDEFINED> instruction: 0xf8470065

00002156 <Code_528>:
    2156:	f847 6d04 	str.w	r6, [r7, #-4]!
    215a:	2647      	movs	r6, #71	; 0x47
    215c:	e05f      	b.n	221e <Code_542>

0000215e <Dictionary_531>:
    215e:	0000218e 	andeq	r2, r0, lr, lsl #3
    2162:	63080000 	movwvs	r0, #32768	; 0x8000
    2166:	74736e6f 	ldrbtvc	r6, [r3], #-3695	; 0xe6f
    216a:	00746e61 	rsbseq	r6, r4, r1, ror #28

0000216e <Code_531>:
    216e:	b500      	push	{lr}
    2170:	f000 f9f0 	bl	2554 <Code_590>
    2174:	f7ff fe24 	bl	1dc0 <Code_448>
    2178:	f847 6d04 	str.w	r6, [r7, #-4]!
    217c:	f244 7670 	movw	r6, #18288	; 0x4770
    2180:	f000 f8e4 	bl	234c <Code_559>
    2184:	f7ff ff8c 	bl	20a0 <Code_507>
    2188:	f000 f819 	bl	21be <Code_536>
    218c:	bd00      	pop	{pc}

0000218e <Dictionary_534>:
    218e:	000021b0 			; <UNDEFINED> instruction: 0x000021b0
    2192:	32090000 	andcc	r0, r9, #0
    2196:	736e6f63 	cmnvc	lr, #396	; 0x18c
    219a:	746e6174 	strbtvc	r6, [lr], #-372	; 0x174

0000219e <Code_534>:
    219e:	b500      	push	{lr}
    21a0:	f000 f9d8 	bl	2554 <Code_590>
    21a4:	6839      	ldr	r1, [r7, #0]
    21a6:	603e      	str	r6, [r7, #0]
    21a8:	460e      	mov	r6, r1
    21aa:	f7ff fe09 	bl	1dc0 <Code_448>
    21ae:	e7e1      	b.n	2174 <Code_531+0x6>

000021b0 <Dictionary_536>:
    21b0:	0000220e 	andeq	r2, r0, lr, lsl #4
    21b4:	73060000 	movwvc	r0, #24576	; 0x6000
    21b8:	6764756d 	strbvs	r7, [r4, -sp, ror #10]!
    21bc:	b5000065 	strlt	r0, [r0, #-101]	; 0x65

000021be <Code_536>:
    21be:	b500      	push	{lr}
    21c0:	482b      	ldr	r0, [pc, #172]	; (2270 <setflags_ram+0x38>)
    21c2:	6801      	ldr	r1, [r0, #0]
    21c4:	4a2a      	ldr	r2, [pc, #168]	; (2270 <setflags_ram+0x38>)
    21c6:	4291      	cmp	r1, r2
    21c8:	f080 801b 	bcs.w	2202 <smudge_ram>
    21cc:	3902      	subs	r1, #2
    21ce:	880a      	ldrh	r2, [r1, #0]
    21d0:	4b2d      	ldr	r3, [pc, #180]	; (2288 <setflags_ram+0x50>)
    21d2:	429a      	cmp	r2, r3
    21d4:	d104      	bne.n	21e0 <Code_536+0x22>
    21d6:	f847 6d04 	str.w	r6, [r7, #-4]!
    21da:	4e2c      	ldr	r6, [pc, #176]	; (228c <setflags_ram+0x54>)
    21dc:	f000 f8b6 	bl	234c <Code_559>
    21e0:	f000 f887 	bl	22f2 <Code_550>
    21e4:	482a      	ldr	r0, [pc, #168]	; (2290 <setflags_ram+0x58>)
    21e6:	6800      	ldr	r0, [r0, #0]
    21e8:	f847 6d04 	str.w	r6, [r7, #-4]!
    21ec:	0006      	movs	r6, r0
    21ee:	4929      	ldr	r1, [pc, #164]	; (2294 <setflags_ram+0x5c>)
    21f0:	6809      	ldr	r1, [r1, #0]
    21f2:	3104      	adds	r1, #4
    21f4:	4a1e      	ldr	r2, [pc, #120]	; (2270 <setflags_ram+0x38>)
    21f6:	6813      	ldr	r3, [r2, #0]
    21f8:	6011      	str	r1, [r2, #0]
    21fa:	f000 f8a7 	bl	234c <Code_559>
    21fe:	6013      	str	r3, [r2, #0]
    2200:	bd00      	pop	{pc}

00002202 <smudge_ram>:
    2202:	f000 f876 	bl	22f2 <Code_550>
    2206:	f847 6d04 	str.w	r6, [r7, #-4]!
    220a:	2600      	movs	r6, #0
    220c:	e008      	b.n	2220 <setflags_intern>

0000220e <Dictionary_542>:
    220e:	00002298 	muleq	r0, r8, r2
    2212:	73080000 	movwvc	r0, #32768	; 0x8000
    2216:	6c667465 	cfstrdvs	mvd7, [r6], #-404	; 0xfffffe6c
    221a:	00736761 	rsbseq	r6, r3, r1, ror #14

0000221e <Code_542>:
    221e:	b500      	push	{lr}

00002220 <setflags_intern>:
    2220:	4813      	ldr	r0, [pc, #76]	; (2270 <setflags_ram+0x38>)
    2222:	6801      	ldr	r1, [r0, #0]
    2224:	4a12      	ldr	r2, [pc, #72]	; (2270 <setflags_ram+0x38>)
    2226:	4291      	cmp	r1, r2
    2228:	f080 8006 	bcs.w	2238 <setflags_ram>
    222c:	4818      	ldr	r0, [pc, #96]	; (2290 <setflags_ram+0x58>)
    222e:	6801      	ldr	r1, [r0, #0]
    2230:	4331      	orrs	r1, r6
    2232:	6001      	str	r1, [r0, #0]
    2234:	cf40      	ldmia	r7!, {r6}
    2236:	bd00      	pop	{pc}

00002238 <setflags_ram>:
    2238:	0032      	movs	r2, r6
    223a:	cf40      	ldmia	r7!, {r6}
    223c:	4815      	ldr	r0, [pc, #84]	; (2294 <setflags_ram+0x5c>)
    223e:	6800      	ldr	r0, [r0, #0]
    2240:	3004      	adds	r0, #4
    2242:	8801      	ldrh	r1, [r0, #0]
    2244:	4b10      	ldr	r3, [pc, #64]	; (2288 <setflags_ram+0x50>)
    2246:	4299      	cmp	r1, r3
    2248:	bf0c      	ite	eq
    224a:	4611      	moveq	r1, r2
    224c:	4311      	orrne	r1, r2
    224e:	8001      	strh	r1, [r0, #0]
    2250:	bd00      	pop	{pc}
    2252:	00000000 	andeq	r0, r0, r0
    2256:	0000f240 	andeq	pc, r0, r0, asr #4
    225a:	0000f2c0 	andeq	pc, r0, r0, asr #5
    225e:	0000f05f 	andeq	pc, r0, pc, asr r0	; <UNPREDICTABLE>
    2262:	0001f07f 	andeq	pc, r1, pc, ror r0	; <UNPREDICTABLE>
    2266:	0000ffc0 	andeq	pc, r0, r0, asr #31
    226a:	f800ffc0 			; <UNDEFINED> instruction: 0xf800ffc0
    226e:	0000f000 	andeq	pc, r0, r0
    2272:	00142000 	andseq	r2, r4, r0
    2276:	1f042000 	svcne	0x00042000
    227a:	1d560000 	ldclne	0, cr0, [r6, #-0]
    227e:	ffd80000 			; <UNDEFINED> instruction: 0xffd80000
    2282:	00102001 	andseq	r2, r0, r1
    2286:	ffff2000 			; <UNDEFINED> instruction: 0xffff2000
    228a:	00000000 	andeq	r0, r0, r0
    228e:	00200000 	eoreq	r0, r0, r0
    2292:	00042000 	andeq	r2, r4, r0
    2296:	22a62000 	adccs	r2, r6, #0

00002298 <Dictionary_545>:
    2298:	000022a6 	andeq	r2, r0, r6, lsr #5
    229c:	61050000 	mrsvs	r0, (UNDEF: 5)
    22a0:	6e67696c 	cdpvs	9, 6, cr6, cr7, cr12, {3}

000022a4 <Code_545>:
    22a4:	e025      	b.n	22f2 <Code_550>

000022a6 <Dictionary_546>:
    22a6:	000022c2 	andeq	r2, r0, r2, asr #5
    22aa:	61070041 	tstvs	r7, r1, asr #32
    22ae:	6e67696c 	cdpvs	9, 6, cr6, cr7, cr12, {3}
    22b2:	20016465 	andcs	r6, r1, r5, ror #8

000022b4 <Code_546>:
    22b4:	2001      	movs	r0, #1
    22b6:	4030      	ands	r0, r6
    22b8:	1836      	adds	r6, r6, r0
    22ba:	2002      	movs	r0, #2
    22bc:	4030      	ands	r0, r6
    22be:	1836      	adds	r6, r6, r0
    22c0:	4770      	bx	lr

000022c2 <Dictionary_547>:
    22c2:	000022e4 	andeq	r2, r0, r4, ror #5
    22c6:	61060000 	mrsvs	r0, (UNDEF: 6)
    22ca:	6e67696c 	cdpvs	9, 6, cr6, cr7, cr12, {3}
    22ce:	4896002c 	ldmmi	r6, {r2, r3, r5}

000022d0 <Code_547>:
    22d0:	4896      	ldr	r0, [pc, #600]	; (252c <Zweitpointertausch+0x50>)
    22d2:	6801      	ldr	r1, [r0, #0]
    22d4:	2001      	movs	r0, #1
    22d6:	4001      	ands	r1, r0
    22d8:	d003      	beq.n	22e2 <Code_547+0x12>
    22da:	f847 6d04 	str.w	r6, [r7, #-4]!
    22de:	2600      	movs	r6, #0
    22e0:	e01a      	b.n	2318 <Code_553>
    22e2:	4770      	bx	lr

000022e4 <Dictionary_550>:
    22e4:	0000230e 	andeq	r2, r0, lr, lsl #6
    22e8:	61070000 	mrsvs	r0, (UNDEF: 7)
    22ec:	6e67696c 	cdpvs	9, 6, cr6, cr7, cr12, {3}
    22f0:	b5002c34 	strlt	r2, [r0, #-3124]	; 0xc34

000022f2 <Code_550>:
    22f2:	b500      	push	{lr}
    22f4:	f7ff ffec 	bl	22d0 <Code_547>
    22f8:	488c      	ldr	r0, [pc, #560]	; (252c <Zweitpointertausch+0x50>)
    22fa:	6801      	ldr	r1, [r0, #0]
    22fc:	2002      	movs	r0, #2
    22fe:	4001      	ands	r1, r0
    2300:	d004      	beq.n	230c <Code_550+0x1a>
    2302:	f847 6d04 	str.w	r6, [r7, #-4]!
    2306:	2600      	movs	r6, #0
    2308:	f000 f820 	bl	234c <Code_559>
    230c:	bd00      	pop	{pc}

0000230e <Dictionary_553>:
    230e:	00002342 	andeq	r2, r0, r2, asr #6
    2312:	63020000 	movwvs	r0, #8192	; 0x2000
    2316:	b500002c 	strlt	r0, [r0, #-44]	; 0x2c

00002318 <Code_553>:
    2318:	b500      	push	{lr}
    231a:	4884      	ldr	r0, [pc, #528]	; (252c <Zweitpointertausch+0x50>)
    231c:	6801      	ldr	r1, [r0, #0]
    231e:	4a83      	ldr	r2, [pc, #524]	; (252c <Zweitpointertausch+0x50>)
    2320:	4291      	cmp	r1, r2
    2322:	d205      	bcs.n	2330 <ckomma_ram>
    2324:	f847 6d04 	str.w	r6, [r7, #-4]!
    2328:	000e      	movs	r6, r1
    232a:	f7fe fe76 	bl	101a <Code_226>
    232e:	e002      	b.n	2336 <ckomma_fertig>

00002330 <ckomma_ram>:
    2330:	0032      	movs	r2, r6
    2332:	cf40      	ldmia	r7!, {r6}
    2334:	700a      	strb	r2, [r1, #0]

00002336 <ckomma_fertig>:
    2336:	f847 6d04 	str.w	r6, [r7, #-4]!
    233a:	2601      	movs	r6, #1
    233c:	f000 f872 	bl	2424 <Code_579>
    2340:	bd00      	pop	{pc}

00002342 <Dictionary_559>:
    2342:	0000237a 	andeq	r2, r0, sl, ror r3
    2346:	68020000 	stmdavs	r2, {}	; <UNPREDICTABLE>
    234a:	b50f002c 	strlt	r0, [pc, #-44]	; 2326 <Code_553+0xe>

0000234c <Code_559>:
    234c:	b50f      	push	{r0, r1, r2, r3, lr}
    234e:	b2b6      	uxth	r6, r6
    2350:	4876      	ldr	r0, [pc, #472]	; (252c <Zweitpointertausch+0x50>)
    2352:	6801      	ldr	r1, [r0, #0]
    2354:	4a75      	ldr	r2, [pc, #468]	; (252c <Zweitpointertausch+0x50>)
    2356:	4291      	cmp	r1, r2
    2358:	f080 8006 	bcs.w	2368 <hkomma_ram>
    235c:	f847 6d04 	str.w	r6, [r7, #-4]!
    2360:	000e      	movs	r6, r1
    2362:	f7fe fe10 	bl	f86 <Code_222>
    2366:	e002      	b.n	236e <hkomma_fertig>

00002368 <hkomma_ram>:
    2368:	0032      	movs	r2, r6
    236a:	cf40      	ldmia	r7!, {r6}
    236c:	800a      	strh	r2, [r1, #0]

0000236e <hkomma_fertig>:
    236e:	f847 6d04 	str.w	r6, [r7, #-4]!
    2372:	2602      	movs	r6, #2
    2374:	f000 f856 	bl	2424 <Code_579>
    2378:	bd0f      	pop	{r0, r1, r2, r3, pc}

0000237a <Dictionary_565>:
    237a:	00002394 	muleq	r0, r4, r3
    237e:	2c010000 	stccs	0, cr0, [r1], {-0}

00002382 <Code_565>:
    2382:	b500      	push	{lr}
    2384:	f847 6d04 	str.w	r6, [r7, #-4]!
    2388:	f7ff ffe0 	bl	234c <Code_559>
    238c:	0c36      	lsrs	r6, r6, #16
    238e:	f7ff ffdd 	bl	234c <Code_559>
    2392:	bd00      	pop	{pc}

00002394 <Dictionary_568>:
    2394:	000023b0 			; <UNDEFINED> instruction: 0x000023b0
    2398:	3e030000 	cdpcc	0, 0, cr0, cr3, cr0, {0}
    239c:	b5002c3c 	strlt	r2, [r0, #-3132]	; 0xc3c

0000239e <Code_568>:
    239e:	b500      	push	{lr}
    23a0:	f847 6d04 	str.w	r6, [r7, #-4]!
    23a4:	0c36      	lsrs	r6, r6, #16
    23a6:	f7ff ffd1 	bl	234c <Code_559>
    23aa:	f7ff ffcf 	bl	234c <Code_559>
    23ae:	bd00      	pop	{pc}

000023b0 <Dictionary_571>:
    23b0:	00002418 	andeq	r2, r0, r8, lsl r4
    23b4:	73070000 	movwvc	r0, #28672	; 0x7000
    23b8:	6e697274 	mcrvs	2, 3, r7, cr9, cr4, {3}
    23bc:	b5072c67 	strlt	r2, [r7, #-3175]	; 0xc67

000023be <Code_571>:
    23be:	b507      	push	{r0, r1, r2, lr}
    23c0:	21ff      	movs	r1, #255	; 0xff
    23c2:	4031      	ands	r1, r6
    23c4:	cf40      	ldmia	r7!, {r6}
    23c6:	0030      	movs	r0, r6
    23c8:	cf40      	ldmia	r7!, {r6}
    23ca:	2900      	cmp	r1, #0
    23cc:	d105      	bne.n	23da <Code_571+0x1c>
    23ce:	f847 6d04 	str.w	r6, [r7, #-4]!
    23d2:	2600      	movs	r6, #0
    23d4:	f7ff ffba 	bl	234c <Code_559>
    23d8:	bd07      	pop	{r0, r1, r2, pc}
    23da:	f847 6d04 	str.w	r6, [r7, #-4]!
    23de:	7806      	ldrb	r6, [r0, #0]
    23e0:	0236      	lsls	r6, r6, #8
    23e2:	430e      	orrs	r6, r1
    23e4:	f7ff ffb2 	bl	234c <Code_559>
    23e8:	3001      	adds	r0, #1
    23ea:	3901      	subs	r1, #1
    23ec:	2902      	cmp	r1, #2
    23ee:	d30a      	bcc.n	2406 <Code_571+0x48>
    23f0:	f847 6d04 	str.w	r6, [r7, #-4]!
    23f4:	7846      	ldrb	r6, [r0, #1]
    23f6:	0236      	lsls	r6, r6, #8
    23f8:	7802      	ldrb	r2, [r0, #0]
    23fa:	4316      	orrs	r6, r2
    23fc:	f7ff ffa6 	bl	234c <Code_559>
    2400:	3002      	adds	r0, #2
    2402:	3902      	subs	r1, #2
    2404:	e7f2      	b.n	23ec <Code_571+0x2e>
    2406:	2900      	cmp	r1, #0
    2408:	d100      	bne.n	240c <Code_571+0x4e>
    240a:	bd07      	pop	{r0, r1, r2, pc}
    240c:	f847 6d04 	str.w	r6, [r7, #-4]!
    2410:	7806      	ldrb	r6, [r0, #0]
    2412:	f7ff ff9b 	bl	234c <Code_559>
    2416:	bd07      	pop	{r0, r1, r2, pc}

00002418 <Dictionary_579>:
    2418:	00002472 	andeq	r2, r0, r2, ror r4
    241c:	61050000 	mrsvs	r0, (UNDEF: 5)
    2420:	746f6c6c 	strbtvc	r6, [pc], #-3180	; 2428 <Code_579+0x4>

00002424 <Code_579>:
    2424:	4841      	ldr	r0, [pc, #260]	; (252c <Zweitpointertausch+0x50>)
    2426:	6801      	ldr	r1, [r0, #0]
    2428:	4a40      	ldr	r2, [pc, #256]	; (252c <Zweitpointertausch+0x50>)
    242a:	4291      	cmp	r1, r2
    242c:	d20f      	bcs.n	244e <allot_ram>
    242e:	0032      	movs	r2, r6
    2430:	cf40      	ldmia	r7!, {r6}
    2432:	1889      	adds	r1, r1, r2
    2434:	4a3e      	ldr	r2, [pc, #248]	; (2530 <Zweitpointertausch+0x54>)
    2436:	4291      	cmp	r1, r2
    2438:	d319      	bcc.n	246e <allot_ok>
    243a:	f7ff fa34 	bl	18a6 <dotgaensefuesschen>
    243e:	616c460b 	cmnvs	ip, fp, lsl #12
    2442:	66206873 			; <UNDEFINED> instruction: 0x66206873
    2446:	0a6c6c75 	beq	1b1d622 <BIT24+0xb1d622>
    244a:	f001 b90f 	b.w	366c <Code_940>

0000244e <allot_ram>:
    244e:	0032      	movs	r2, r6
    2450:	cf40      	ldmia	r7!, {r6}
    2452:	1889      	adds	r1, r1, r2
    2454:	4a37      	ldr	r2, [pc, #220]	; (2534 <Zweitpointertausch+0x58>)
    2456:	6812      	ldr	r2, [r2, #0]
    2458:	4291      	cmp	r1, r2
    245a:	d308      	bcc.n	246e <allot_ok>
    245c:	f7ff fa23 	bl	18a6 <dotgaensefuesschen>
    2460:	6d615209 	sfmvs	f5, 2, [r1, #-36]!	; 0xffffffdc
    2464:	6c756620 	ldclvs	6, cr6, [r5], #-128	; 0xffffff80
    2468:	f0010a6c 			; <UNDEFINED> instruction: 0xf0010a6c
    246c:	b8ff      			; <UNDEFINED> instruction: 0xb8ff

0000246e <allot_ok>:
    246e:	6001      	str	r1, [r0, #0]
    2470:	4770      	bx	lr

00002472 <Dictionary_584>:
    2472:	0000249a 	muleq	r0, sl, r4
    2476:	630d0000 	movwvs	r0, #53248	; 0xd000
    247a:	69706d6f 	ldmdbvs	r0!, {r0, r1, r2, r3, r5, r6, r8, sl, fp, sp, lr}^
    247e:	6f74656c 	svcvs	0x0074656c
    2482:	3f6d6172 	svccc	0x006d6172

00002486 <Code_584>:
    2486:	f847 6d04 	str.w	r6, [r7, #-4]!
    248a:	2600      	movs	r6, #0
    248c:	4827      	ldr	r0, [pc, #156]	; (252c <Zweitpointertausch+0x50>)
    248e:	6800      	ldr	r0, [r0, #0]
    2490:	4926      	ldr	r1, [pc, #152]	; (252c <Zweitpointertausch+0x50>)
    2492:	4288      	cmp	r0, r1
    2494:	d348      	bcc.n	2528 <Zweitpointertausch+0x4c>
    2496:	43f6      	mvns	r6, r6
    2498:	4770      	bx	lr

0000249a <Dictionary_587>:
    249a:	000024ba 			; <UNDEFINED> instruction: 0x000024ba
    249e:	630c0000 	movwvs	r0, #49152	; 0xc000
    24a2:	69706d6f 	ldmdbvs	r0!, {r0, r1, r2, r3, r5, r6, r8, sl, fp, sp, lr}^
    24a6:	6f74656c 	svcvs	0x0074656c
    24aa:	006d6172 	rsbeq	r6, sp, r2, ror r1

000024ae <Code_587>:
    24ae:	481f      	ldr	r0, [pc, #124]	; (252c <Zweitpointertausch+0x50>)
    24b0:	6800      	ldr	r0, [r0, #0]
    24b2:	491e      	ldr	r1, [pc, #120]	; (252c <Zweitpointertausch+0x50>)
    24b4:	4288      	cmp	r0, r1
    24b6:	d311      	bcc.n	24dc <Zweitpointertausch>
    24b8:	4770      	bx	lr

000024ba <Dictionary_588>:
    24ba:	00002544 	andeq	r2, r0, r4, asr #10
    24be:	630e0000 	movwvs	r0, #57344	; 0xe000
    24c2:	69706d6f 	ldmdbvs	r0!, {r0, r1, r2, r3, r5, r6, r8, sl, fp, sp, lr}^
    24c6:	6f74656c 	svcvs	0x0074656c
    24ca:	73616c66 	cmnvc	r1, #26112	; 0x6600
    24ce:	48160068 	ldmdami	r6, {r3, r5, r6}

000024d0 <Code_588>:
    24d0:	4816      	ldr	r0, [pc, #88]	; (252c <Zweitpointertausch+0x50>)
    24d2:	6800      	ldr	r0, [r0, #0]
    24d4:	4915      	ldr	r1, [pc, #84]	; (252c <Zweitpointertausch+0x50>)
    24d6:	4288      	cmp	r0, r1
    24d8:	d200      	bcs.n	24dc <Zweitpointertausch>
    24da:	4770      	bx	lr

000024dc <Zweitpointertausch>:
    24dc:	4816      	ldr	r0, [pc, #88]	; (2538 <Zweitpointertausch+0x5c>)
    24de:	4917      	ldr	r1, [pc, #92]	; (253c <Zweitpointertausch+0x60>)
    24e0:	6802      	ldr	r2, [r0, #0]
    24e2:	680b      	ldr	r3, [r1, #0]
    24e4:	600a      	str	r2, [r1, #0]
    24e6:	6003      	str	r3, [r0, #0]
    24e8:	4810      	ldr	r0, [pc, #64]	; (252c <Zweitpointertausch+0x50>)
    24ea:	4915      	ldr	r1, [pc, #84]	; (2540 <Zweitpointertausch+0x64>)
    24ec:	6802      	ldr	r2, [r0, #0]
    24ee:	680b      	ldr	r3, [r1, #0]
    24f0:	600a      	str	r2, [r1, #0]
    24f2:	6003      	str	r3, [r0, #0]
    24f4:	480f      	ldr	r0, [pc, #60]	; (2534 <Zweitpointertausch+0x58>)
    24f6:	6800      	ldr	r0, [r0, #0]
    24f8:	4283      	cmp	r3, r0
    24fa:	d315      	bcc.n	2528 <Zweitpointertausch+0x4c>
    24fc:	b500      	push	{lr}
    24fe:	f7ff f9d2 	bl	18a6 <dotgaensefuesschen>
    2502:	61562023 	cmpvs	r6, r3, lsr #32
    2506:	62616972 	rsbvs	r6, r1, #1867776	; 0x1c8000
    250a:	2073656c 	rsbscs	r6, r3, ip, ror #10
    250e:	6c6c6f63 	stclvs	15, cr6, [ip], #-396	; 0xfffffe74
    2512:	20656469 	rsbcs	r6, r5, r9, ror #8
    2516:	68746977 	ldmdavs	r4!, {r0, r1, r2, r4, r5, r6, r8, fp, sp, lr}^
    251a:	63696420 	cmnvs	r9, #32, 8	; 0x20000000
    251e:	6e6f6974 	mcrvs	9, 3, r6, cr15, cr4, {3}
    2522:	0a797261 	beq	1e5eeae <BIT24+0xe5eeae>
    2526:	bd00      	pop	{pc}
    2528:	4770      	bx	lr
    252a:	00000000 	andeq	r0, r0, r0
    252e:	00002000 	andeq	r2, r0, r0
    2532:	00240008 	eoreq	r0, r4, r8
    2536:	00042000 	andeq	r2, r4, r0
    253a:	001c2000 	andseq	r2, ip, r0
    253e:	00182000 	andseq	r2, r8, r0
    2542:	26342000 	ldrtcs	r2, [r4], -r0

00002544 <Dictionary_590>:
    2544:	00002634 	andeq	r2, r0, r4, lsr r6
    2548:	28080000 	stmdacs	r8, {}	; <UNPREDICTABLE>
    254c:	61657263 	cmnvs	r5, r3, ror #4
    2550:	00296574 	eoreq	r6, r9, r4, ror r5

00002554 <Code_590>:
    2554:	b500      	push	{lr}
    2556:	f000 fd03 	bl	2f60 <Code_813>
    255a:	2e00      	cmp	r6, #0
    255c:	d10e      	bne.n	257c <Code_590+0x28>
    255e:	f7ff f9a2 	bl	18a6 <dotgaensefuesschen>
    2562:	72432015 	subvc	r2, r3, #21
    2566:	65746165 	ldrbvs	r6, [r4, #-357]!	; 0x165
    256a:	65656e20 	strbvs	r6, [r5, #-3616]!	; 0xe20
    256e:	6e207364 	cdpvs	3, 2, cr7, cr0, cr4, {3}
    2572:	20656d61 	rsbcs	r6, r5, r1, ror #26
    2576:	f0010a21 			; <UNDEFINED> instruction: 0xf0010a21
    257a:	b878      			; <UNDEFINED> instruction: 0xb878
    257c:	6838      	ldr	r0, [r7, #0]
    257e:	f847 6d04 	str.w	r6, [r7, #-4]!
    2582:	3f04      	subs	r7, #4
    2584:	6038      	str	r0, [r7, #0]
    2586:	f000 f9a4 	bl	28d2 <Code_653>
    258a:	cf40      	ldmia	r7!, {r6}
    258c:	2e00      	cmp	r6, #0
    258e:	cf40      	ldmia	r7!, {r6}
    2590:	d011      	beq.n	25b6 <Code_590+0x62>
    2592:	6838      	ldr	r0, [r7, #0]
    2594:	f847 6d04 	str.w	r6, [r7, #-4]!
    2598:	3f04      	subs	r7, #4
    259a:	6038      	str	r0, [r7, #0]
    259c:	f7ff f983 	bl	18a6 <dotgaensefuesschen>
    25a0:	64655209 	strbtvs	r5, [r5], #-521	; 0x209
    25a4:	6e696665 	cdpvs	6, 6, cr6, cr9, cr5, {3}
    25a8:	f7ff2065 			; <UNDEFINED> instruction: 0xf7ff2065
    25ac:	f9d8 f7ff 	ldr??.w	pc, [r8, #2047]	; 0x7ff
    25b0:	f97a 2e02 	ldr??t	r2, [sl, #2]
    25b4:	f7ff000a 			; <UNDEFINED> instruction: 0xf7ff000a
    25b8:	fe8b f7ff 	mcr2	7, 4, pc, cr11, cr15, {7}	; <UNPREDICTABLE>
    25bc:	fe9a f000 	cdp2	0, 9, cr15, cr10, cr0, {0}
    25c0:	fa11 4890 			; <UNDEFINED> instruction: 0xfa114890
    25c4:	6800      	ldr	r0, [r0, #0]
    25c6:	498f      	ldr	r1, [pc, #572]	; (2804 <rambuffer_ram+0x46>)
    25c8:	4288      	cmp	r0, r1
    25ca:	f080 801d 	bcs.w	2608 <create_ram>
    25ce:	488e      	ldr	r0, [pc, #568]	; (2808 <rambuffer_ram+0x4a>)
    25d0:	2100      	movs	r1, #0
    25d2:	6001      	str	r1, [r0, #0]
    25d4:	f847 6d04 	str.w	r6, [r7, #-4]!
    25d8:	2606      	movs	r6, #6
    25da:	f7ff ff23 	bl	2424 <Code_579>
    25de:	f7fe f977 	bl	8d0 <Code_133>
    25e2:	f7ff feec 	bl	23be <Code_571>
    25e6:	4889      	ldr	r0, [pc, #548]	; (280c <rambuffer_ram+0x4e>)
    25e8:	6801      	ldr	r1, [r0, #0]
    25ea:	680a      	ldr	r2, [r1, #0]
    25ec:	4b88      	ldr	r3, [pc, #544]	; (2810 <rambuffer_ram+0x52>)
    25ee:	429a      	cmp	r2, r3
    25f0:	d107      	bne.n	2602 <Code_590+0xae>
    25f2:	4a84      	ldr	r2, [pc, #528]	; (2804 <rambuffer_ram+0x46>)
    25f4:	6813      	ldr	r3, [r2, #0]
    25f6:	6011      	str	r1, [r2, #0]
    25f8:	f847 6d04 	str.w	r6, [r7, #-4]!
    25fc:	f7ff fec1 	bl	2382 <Code_565>
    2600:	6013      	str	r3, [r2, #0]
    2602:	6006      	str	r6, [r0, #0]
    2604:	cf40      	ldmia	r7!, {r6}
    2606:	e010      	b.n	262a <create_ende>

00002608 <create_ram>:
    2608:	4880      	ldr	r0, [pc, #512]	; (280c <rambuffer_ram+0x4e>)
    260a:	f847 6d04 	str.w	r6, [r7, #-4]!
    260e:	6806      	ldr	r6, [r0, #0]
    2610:	f7ff feb7 	bl	2382 <Code_565>
    2614:	f847 6d04 	str.w	r6, [r7, #-4]!
    2618:	4e7e      	ldr	r6, [pc, #504]	; (2814 <rambuffer_ram+0x56>)
    261a:	f7ff fe97 	bl	234c <Code_559>
    261e:	487b      	ldr	r0, [pc, #492]	; (280c <rambuffer_ram+0x4e>)
    2620:	0031      	movs	r1, r6
    2622:	cf40      	ldmia	r7!, {r6}
    2624:	6001      	str	r1, [r0, #0]
    2626:	f7ff feca 	bl	23be <Code_571>

0000262a <create_ende>:
    262a:	4876      	ldr	r0, [pc, #472]	; (2804 <rambuffer_ram+0x46>)
    262c:	6801      	ldr	r1, [r0, #0]
    262e:	487a      	ldr	r0, [pc, #488]	; (2818 <rambuffer_ram+0x5a>)
    2630:	6001      	str	r1, [r0, #0]
    2632:	bd00      	pop	{pc}

00002634 <Dictionary_608>:
    2634:	0000264c 	andeq	r2, r0, ip, asr #12
    2638:	76080000 	strvc	r0, [r8], -r0
    263c:	61697261 	cmnvs	r9, r1, ror #4
    2640:	00656c62 	rsbeq	r6, r5, r2, ror #24

00002644 <Code_608>:
    2644:	f847 6d04 	str.w	r6, [r7, #-4]!
    2648:	2601      	movs	r6, #1
    264a:	e013      	b.n	2674 <Code_614>

0000264c <Dictionary_611>:
    264c:	00002664 	andeq	r2, r0, r4, ror #12
    2650:	32090000 	andcc	r0, r9, #0
    2654:	69726176 	ldmdbvs	r2!, {r1, r2, r4, r5, r6, r8, sp, lr}^
    2658:	656c6261 	strbvs	r6, [ip, #-609]!	; 0x261

0000265c <Code_611>:
    265c:	f847 6d04 	str.w	r6, [r7, #-4]!
    2660:	2602      	movs	r6, #2
    2662:	e007      	b.n	2674 <Code_614>

00002664 <Dictionary_614>:
    2664:	00002740 	andeq	r2, r0, r0, asr #14
    2668:	6e090000 	cdpvs	0, 0, cr0, cr9, cr0, {0}
    266c:	69726176 	ldmdbvs	r2!, {r1, r2, r4, r5, r6, r8, sp, lr}^
    2670:	656c6261 	strbvs	r6, [ip, #-609]!	; 0x261

00002674 <Code_614>:
    2674:	b500      	push	{lr}
    2676:	f7ff ff6d 	bl	2554 <Code_590>
    267a:	4862      	ldr	r0, [pc, #392]	; (2804 <rambuffer_ram+0x46>)
    267c:	6801      	ldr	r1, [r0, #0]
    267e:	4a61      	ldr	r2, [pc, #388]	; (2804 <rambuffer_ram+0x46>)
    2680:	4291      	cmp	r1, r2
    2682:	f080 8035 	bcs.w	26f0 <variable_ram>
    2686:	200f      	movs	r0, #15
    2688:	4006      	ands	r6, r0
    268a:	00b2      	lsls	r2, r6, #2
    268c:	4863      	ldr	r0, [pc, #396]	; (281c <rambuffer_ram+0x5e>)
    268e:	6801      	ldr	r1, [r0, #0]
    2690:	1a89      	subs	r1, r1, r2
    2692:	4a63      	ldr	r2, [pc, #396]	; (2820 <rambuffer_ram+0x62>)
    2694:	4291      	cmp	r1, r2
    2696:	d20b      	bcs.n	26b0 <Code_614+0x3c>
    2698:	f7ff f905 	bl	18a6 <dotgaensefuesschen>
    269c:	746f4e0f 	strbtvc	r4, [pc], #-3599	; 26a4 <Code_614+0x30>
    26a0:	6f6e6520 	svcvs	0x006e6520
    26a4:	20686775 	rsbcs	r6, r8, r5, ror r7
    26a8:	0a4d4152 	beq	1352bf8 <BIT24+0x352bf8>
    26ac:	f000 bfde 	b.w	366c <Code_940>
    26b0:	6001      	str	r1, [r0, #0]
    26b2:	f847 6d04 	str.w	r6, [r7, #-4]!
    26b6:	000e      	movs	r6, r1
    26b8:	f7ff fb82 	bl	1dc0 <Code_448>
    26bc:	f847 6d04 	str.w	r6, [r7, #-4]!
    26c0:	f244 7670 	movw	r6, #18288	; 0x4770
    26c4:	f7ff fe42 	bl	234c <Code_559>
    26c8:	0030      	movs	r0, r6
    26ca:	cf40      	ldmia	r7!, {r6}
    26cc:	0002      	movs	r2, r0
    26ce:	2800      	cmp	r0, #0
    26d0:	d005      	beq.n	26de <Code_614+0x6a>
    26d2:	600e      	str	r6, [r1, #0]
    26d4:	3104      	adds	r1, #4
    26d6:	f7ff fe54 	bl	2382 <Code_565>
    26da:	3801      	subs	r0, #1
    26dc:	d1f9      	bne.n	26d2 <Code_614+0x5e>
    26de:	f847 6d04 	str.w	r6, [r7, #-4]!
    26e2:	2680      	movs	r6, #128	; 0x80
    26e4:	4316      	orrs	r6, r2
    26e6:	f7ff fd9a 	bl	221e <Code_542>
    26ea:	f7ff fd68 	bl	21be <Code_536>
    26ee:	bd00      	pop	{pc}

000026f0 <variable_ram>:
    26f0:	f000 f978 	bl	29e4 <Code_675>
    26f4:	2002      	movs	r0, #2
    26f6:	4006      	ands	r6, r0
    26f8:	cf40      	ldmia	r7!, {r6}
    26fa:	d104      	bne.n	2706 <variable_ram+0x16>
    26fc:	f847 6d04 	str.w	r6, [r7, #-4]!
    2700:	2636      	movs	r6, #54	; 0x36
    2702:	f7ff fe23 	bl	234c <Code_559>
    2706:	f847 6d04 	str.w	r6, [r7, #-4]!
    270a:	4e46      	ldr	r6, [pc, #280]	; (2824 <rambuffer_ram+0x66>)
    270c:	f7ff fe47 	bl	239e <Code_568>
    2710:	f847 6d04 	str.w	r6, [r7, #-4]!
    2714:	4e44      	ldr	r6, [pc, #272]	; (2828 <rambuffer_ram+0x6a>)
    2716:	f7ff fe42 	bl	239e <Code_568>
    271a:	f847 6d04 	str.w	r6, [r7, #-4]!
    271e:	f244 7670 	movw	r6, #18288	; 0x4770
    2722:	f7ff fe13 	bl	234c <Code_559>
    2726:	0030      	movs	r0, r6
    2728:	cf40      	ldmia	r7!, {r6}
    272a:	2800      	cmp	r0, #0
    272c:	d003      	beq.n	2736 <variable_ram+0x46>
    272e:	f7ff fe28 	bl	2382 <Code_565>
    2732:	3801      	subs	r0, #1
    2734:	d1fb      	bne.n	272e <variable_ram+0x3e>
    2736:	f7ff fcb3 	bl	20a0 <Code_507>
    273a:	f7ff fd40 	bl	21be <Code_536>
    273e:	bd00      	pop	{pc}

00002740 <Dictionary_631>:
    2740:	0000282c 	andeq	r2, r0, ip, lsr #16
    2744:	62070000 	andvs	r0, r7, #0
    2748:	65666675 	strbvs	r6, [r6, #-1653]!	; 0x675
    274c:	b5003a72 	strlt	r3, [r0, #-2674]	; 0xa72

0000274e <Code_631>:
    274e:	b500      	push	{lr}
    2750:	f7ff ff00 	bl	2554 <Code_590>
    2754:	2001      	movs	r0, #1
    2756:	4030      	ands	r0, r6
    2758:	1836      	adds	r6, r6, r0
    275a:	2002      	movs	r0, #2
    275c:	4030      	ands	r0, r6
    275e:	1836      	adds	r6, r6, r0
    2760:	4828      	ldr	r0, [pc, #160]	; (2804 <rambuffer_ram+0x46>)
    2762:	6801      	ldr	r1, [r0, #0]
    2764:	4a27      	ldr	r2, [pc, #156]	; (2804 <rambuffer_ram+0x46>)
    2766:	4291      	cmp	r1, r2
    2768:	f080 8029 	bcs.w	27be <rambuffer_ram>
    276c:	482b      	ldr	r0, [pc, #172]	; (281c <rambuffer_ram+0x5e>)
    276e:	6801      	ldr	r1, [r0, #0]
    2770:	1b89      	subs	r1, r1, r6
    2772:	4a2b      	ldr	r2, [pc, #172]	; (2820 <rambuffer_ram+0x62>)
    2774:	4291      	cmp	r1, r2
    2776:	d20b      	bcs.n	2790 <Code_631+0x42>
    2778:	f7ff f895 	bl	18a6 <dotgaensefuesschen>
    277c:	746f4e0f 	strbtvc	r4, [pc], #-3599	; 2784 <Code_631+0x36>
    2780:	6f6e6520 	svcvs	0x006e6520
    2784:	20686775 	rsbcs	r6, r8, r5, ror r7
    2788:	0a4d4152 	beq	1352cd8 <BIT24+0x352cd8>
    278c:	f000 bf6e 	b.w	366c <Code_940>
    2790:	6001      	str	r1, [r0, #0]
    2792:	f847 6d04 	str.w	r6, [r7, #-4]!
    2796:	000e      	movs	r6, r1
    2798:	f7ff fb12 	bl	1dc0 <Code_448>
    279c:	f847 6d04 	str.w	r6, [r7, #-4]!
    27a0:	f244 7670 	movw	r6, #18288	; 0x4770
    27a4:	f7ff fdd2 	bl	234c <Code_559>
    27a8:	f7ff fdeb 	bl	2382 <Code_565>
    27ac:	f847 6d04 	str.w	r6, [r7, #-4]!
    27b0:	f240 1640 	movw	r6, #320	; 0x140
    27b4:	f7ff fd33 	bl	221e <Code_542>
    27b8:	f7ff fd01 	bl	21be <Code_536>
    27bc:	bd00      	pop	{pc}

000027be <rambuffer_ram>:
    27be:	f000 f911 	bl	29e4 <Code_675>
    27c2:	2002      	movs	r0, #2
    27c4:	4006      	ands	r6, r0
    27c6:	cf40      	ldmia	r7!, {r6}
    27c8:	d104      	bne.n	27d4 <rambuffer_ram+0x16>
    27ca:	f847 6d04 	str.w	r6, [r7, #-4]!
    27ce:	2636      	movs	r6, #54	; 0x36
    27d0:	f7ff fdbc 	bl	234c <Code_559>
    27d4:	f847 6d04 	str.w	r6, [r7, #-4]!
    27d8:	4e12      	ldr	r6, [pc, #72]	; (2824 <rambuffer_ram+0x66>)
    27da:	f7ff fde0 	bl	239e <Code_568>
    27de:	f847 6d04 	str.w	r6, [r7, #-4]!
    27e2:	4e11      	ldr	r6, [pc, #68]	; (2828 <rambuffer_ram+0x6a>)
    27e4:	f7ff fddb 	bl	239e <Code_568>
    27e8:	f847 6d04 	str.w	r6, [r7, #-4]!
    27ec:	f244 7670 	movw	r6, #18288	; 0x4770
    27f0:	f7ff fdac 	bl	234c <Code_559>
    27f4:	f7ff fe16 	bl	2424 <Code_579>
    27f8:	f7ff fc52 	bl	20a0 <Code_507>
    27fc:	f7ff fcdf 	bl	21be <Code_536>
    2800:	bd00      	pop	{pc}
    2802:	00000000 	andeq	r0, r0, r0
    2806:	00202000 	eoreq	r2, r0, r0
    280a:	00042000 	andeq	r2, r4, r0
    280e:	ffff2000 			; <UNDEFINED> instruction: 0xffff2000
    2812:	ffffffff 			; <UNDEFINED> instruction: 0xffffffff
    2816:	00140000 	andseq	r0, r4, r0
    281a:	00242000 	eoreq	r2, r4, r0
    281e:	03302000 	teqeq	r0, #0
    2822:	603e2000 	eorsvs	r2, lr, r0
    2826:	36023f04 	strcc	r3, [r2], -r4, lsl #30
    282a:	285a467e 	ldmdacs	sl, {r1, r2, r3, r4, r5, r6, r9, sl, lr}^

0000282c <Dictionary_646>:
    282c:	0000285a 	andeq	r2, r0, sl, asr r8
    2830:	640f0000 	strvs	r0, [pc], #-0	; 2838 <Dictionary_646+0xc>
    2834:	69746369 	ldmdbvs	r4!, {r0, r3, r5, r6, r8, r9, sp, lr}^
    2838:	72616e6f 	rsbvc	r6, r1, #1776	; 0x6f0
    283c:	61747379 	cmnvs	r4, r9, ror r3
    2840:	48eb7472 	stmiami	fp!, {r1, r4, r5, r6, sl, ip, sp, lr}^

00002842 <Code_646>:
    2842:	48eb      	ldr	r0, [pc, #940]	; (2bf0 <Code_722+0x10>)
    2844:	6800      	ldr	r0, [r0, #0]
    2846:	49ea      	ldr	r1, [pc, #936]	; (2bf0 <Code_722+0x10>)
    2848:	f847 6d04 	str.w	r6, [r7, #-4]!
    284c:	4288      	cmp	r0, r1
    284e:	d201      	bcs.n	2854 <Code_646+0x12>
    2850:	4ee8      	ldr	r6, [pc, #928]	; (2bf4 <Code_722+0x14>)
    2852:	4770      	bx	lr
    2854:	4ee8      	ldr	r6, [pc, #928]	; (2bf8 <Code_722+0x18>)
    2856:	6836      	ldr	r6, [r6, #0]
    2858:	4770      	bx	lr

0000285a <Dictionary_648>:
    285a:	00002894 	muleq	r0, r4, r8
    285e:	640e0000 	strvs	r0, [lr], #-0
    2862:	69746369 	ldmdbvs	r4!, {r0, r3, r5, r6, r8, r9, sp, lr}^
    2866:	72616e6f 	rsbvc	r6, r1, #1776	; 0x6f0
    286a:	78656e79 	stmdavc	r5!, {r0, r3, r4, r5, r6, r9, sl, fp, sp, lr}^
    286e:	b5030074 	strlt	r0, [r3, #-116]	; 0x74

00002870 <Code_648>:
    2870:	b503      	push	{r0, r1, lr}
    2872:	6831      	ldr	r1, [r6, #0]
    2874:	48e1      	ldr	r0, [pc, #900]	; (2bfc <Code_722+0x1c>)
    2876:	4281      	cmp	r1, r0
    2878:	d007      	beq.n	288a <Code_648+0x1a>
    287a:	7988      	ldrb	r0, [r1, #6]
    287c:	28ff      	cmp	r0, #255	; 0xff
    287e:	d004      	beq.n	288a <Code_648+0x1a>
    2880:	000e      	movs	r6, r1
    2882:	f847 6d04 	str.w	r6, [r7, #-4]!
    2886:	2600      	movs	r6, #0
    2888:	bd03      	pop	{r0, r1, pc}
    288a:	f847 6d04 	str.w	r6, [r7, #-4]!
    288e:	2600      	movs	r6, #0
    2890:	43f6      	mvns	r6, r6
    2892:	bd03      	pop	{r0, r1, pc}

00002894 <Dictionary_652>:
    2894:	000028c6 	andeq	r2, r0, r6, asr #17
    2898:	730a0000 	movwvc	r0, #40960	; 0xa000
    289c:	7370696b 	cmnvc	r0, #1753088	; 0x1ac000
    28a0:	6e697274 	mcrvs	2, 3, r7, cr9, cr4, {3}
    28a4:	78310067 	ldmdavc	r1!, {r0, r1, r2, r5, r6}

000028a6 <Code_652>:
    28a6:	7831      	ldrb	r1, [r6, #0]
    28a8:	3101      	adds	r1, #1
    28aa:	2201      	movs	r2, #1
    28ac:	400a      	ands	r2, r1
    28ae:	1889      	adds	r1, r1, r2
    28b0:	1876      	adds	r6, r6, r1
    28b2:	4770      	bx	lr

000028b4 <skipstring>:
    28b4:	b406      	push	{r1, r2}
    28b6:	7801      	ldrb	r1, [r0, #0]
    28b8:	3101      	adds	r1, #1
    28ba:	2201      	movs	r2, #1
    28bc:	400a      	ands	r2, r1
    28be:	1889      	adds	r1, r1, r2
    28c0:	1840      	adds	r0, r0, r1
    28c2:	bc06      	pop	{r1, r2}
    28c4:	4770      	bx	lr

000028c6 <Dictionary_653>:
    28c6:	00002946 	andeq	r2, r0, r6, asr #18
    28ca:	66040000 	strvs	r0, [r4], -r0
    28ce:	00646e69 	rsbeq	r6, r4, r9, ror #28

000028d2 <Code_653>:
    28d2:	b53f      	push	{r0, r1, r2, r3, r4, r5, lr}
    28d4:	2200      	movs	r2, #0
    28d6:	2300      	movs	r3, #0
    28d8:	0035      	movs	r5, r6
    28da:	cf40      	ldmia	r7!, {r6}
    28dc:	0034      	movs	r4, r6
    28de:	cf40      	ldmia	r7!, {r6}
    28e0:	f7ff ffaf 	bl	2842 <Code_646>
    28e4:	48c6      	ldr	r0, [pc, #792]	; (2c00 <Code_722+0x20>)
    28e6:	88b1      	ldrh	r1, [r6, #4]
    28e8:	4288      	cmp	r0, r1
    28ea:	d017      	beq.n	291c <Code_653+0x4a>
    28ec:	f847 6d04 	str.w	r6, [r7, #-4]!
    28f0:	3606      	adds	r6, #6
    28f2:	f7ff f814 	bl	191e <Code_375>
    28f6:	f847 6d04 	str.w	r6, [r7, #-4]!
    28fa:	0026      	movs	r6, r4
    28fc:	f847 6d04 	str.w	r6, [r7, #-4]!
    2900:	002e      	movs	r6, r5
    2902:	f7fe ff46 	bl	1792 <Code_337>
    2906:	2e00      	cmp	r6, #0
    2908:	cf40      	ldmia	r7!, {r6}
    290a:	d007      	beq.n	291c <Code_653+0x4a>
    290c:	1db0      	adds	r0, r6, #6
    290e:	f7ff ffd1 	bl	28b4 <skipstring>
    2912:	0002      	movs	r2, r0
    2914:	000b      	movs	r3, r1
    2916:	48b6      	ldr	r0, [pc, #728]	; (2bf0 <Code_722+0x10>)
    2918:	4282      	cmp	r2, r0
    291a:	d204      	bcs.n	2926 <Code_653+0x54>
    291c:	f7ff ffa8 	bl	2870 <Code_648>
    2920:	0030      	movs	r0, r6
    2922:	cf40      	ldmia	r7!, {r6}
    2924:	d0de      	beq.n	28e4 <Code_653+0x12>
    2926:	0016      	movs	r6, r2
    2928:	f847 6d04 	str.w	r6, [r7, #-4]!
    292c:	001e      	movs	r6, r3
    292e:	bd3f      	pop	{r0, r1, r2, r3, r4, r5, pc}

00002930 <find_not_found>:
    2930:	b500      	push	{lr}
    2932:	0031      	movs	r1, r6
    2934:	6838      	ldr	r0, [r7, #0]
    2936:	f7ff ffcc 	bl	28d2 <Code_653>
    293a:	683a      	ldr	r2, [r7, #0]
    293c:	2a00      	cmp	r2, #0
    293e:	d101      	bne.n	2944 <find_not_found+0x14>
    2940:	f000 fd66 	bl	3410 <not_found_addr_r0_len_r1>
    2944:	bd00      	pop	{pc}

00002946 <Dictionary_666>:
    2946:	000029a0 	andeq	r2, r0, r0, lsr #19
    294a:	63060000 	movwvs	r0, #24576	; 0x6000
    294e:	706d756a 	rsbvc	r7, sp, sl, ror #10
    2952:	0032002c 	eorseq	r0, r2, ip, lsr #32

00002954 <Code_666>:
    2954:	0032      	movs	r2, r6
    2956:	cf40      	ldmia	r7!, {r6}
    2958:	0031      	movs	r1, r6
    295a:	cf40      	ldmia	r7!, {r6}
    295c:	1b8b      	subs	r3, r1, r6
    295e:	3b04      	subs	r3, #4
    2960:	49a8      	ldr	r1, [pc, #672]	; (2c04 <Code_722+0x24>)
    2962:	4019      	ands	r1, r3
    2964:	2900      	cmp	r1, #0
    2966:	d00d      	beq.n	2984 <jump_too_far+0x16>
    2968:	48a7      	ldr	r0, [pc, #668]	; (2c08 <Code_722+0x28>)
    296a:	4281      	cmp	r1, r0
    296c:	d00a      	beq.n	2984 <jump_too_far+0x16>

0000296e <jump_too_far>:
    296e:	f7fe ff9a 	bl	18a6 <dotgaensefuesschen>
    2972:	6d754a0d 	vldmdbvs	r5!, {s9-s21}
    2976:	6f742070 	svcvs	0x00742070
    297a:	6166206f 	cmnvs	r6, pc, rrx
    297e:	f0000a72 			; <UNDEFINED> instruction: 0xf0000a72
    2982:	be74      	bkpt	0x0074
    2984:	105b      	asrs	r3, r3, #1
    2986:	21ff      	movs	r1, #255	; 0xff
    2988:	400b      	ands	r3, r1
    298a:	4313      	orrs	r3, r2
    298c:	0030      	movs	r0, r6
    298e:	001e      	movs	r6, r3

00002990 <sprungbefehl_einfuegen>:
    2990:	b500      	push	{lr}
    2992:	4a97      	ldr	r2, [pc, #604]	; (2bf0 <Code_722+0x10>)
    2994:	6813      	ldr	r3, [r2, #0]
    2996:	6010      	str	r0, [r2, #0]
    2998:	f7ff fcd8 	bl	234c <Code_559>
    299c:	6013      	str	r3, [r2, #0]
    299e:	bd00      	pop	{pc}

000029a0 <Dictionary_670>:
    29a0:	000029d8 	ldrdeq	r2, [r0], -r8
    29a4:	6a050000 	bvs	1429ac <BIT20+0x429ac>
    29a8:	2c706d75 	ldclcs	13, cr6, [r0], #-468	; 0xfffffe2c

000029ac <Code_670>:
    29ac:	0031      	movs	r1, r6
    29ae:	cf40      	ldmia	r7!, {r6}
    29b0:	0030      	movs	r0, r6
    29b2:	cf40      	ldmia	r7!, {r6}
    29b4:	1a0b      	subs	r3, r1, r0
    29b6:	3b04      	subs	r3, #4
    29b8:	4994      	ldr	r1, [pc, #592]	; (2c0c <Code_722+0x2c>)
    29ba:	4019      	ands	r1, r3
    29bc:	2900      	cmp	r1, #0
    29be:	d002      	beq.n	29c6 <Code_670+0x1a>
    29c0:	4a93      	ldr	r2, [pc, #588]	; (2c10 <Code_722+0x30>)
    29c2:	4291      	cmp	r1, r2
    29c4:	d1d3      	bne.n	296e <jump_too_far>
    29c6:	105b      	asrs	r3, r3, #1
    29c8:	4a92      	ldr	r2, [pc, #584]	; (2c14 <Code_722+0x34>)
    29ca:	4013      	ands	r3, r2
    29cc:	f453 4360 	orrs.w	r3, r3, #57344	; 0xe000
    29d0:	f847 6d04 	str.w	r6, [r7, #-4]!
    29d4:	001e      	movs	r6, r3
    29d6:	e7db      	b.n	2990 <sprungbefehl_einfuegen>

000029d8 <Dictionary_675>:
    29d8:	000029ee 	andeq	r2, r0, lr, ror #19
    29dc:	68040000 	stmdavs	r4, {}	; <UNPREDICTABLE>
    29e0:	00657265 	rsbeq	r7, r5, r5, ror #4

000029e4 <Code_675>:
    29e4:	f847 6d04 	str.w	r6, [r7, #-4]!
    29e8:	4e81      	ldr	r6, [pc, #516]	; (2bf0 <Code_722+0x10>)
    29ea:	6836      	ldr	r6, [r6, #0]
    29ec:	4770      	bx	lr

000029ee <Dictionary_677>:
    29ee:	00002aea 	andeq	r2, r0, sl, ror #21
    29f2:	660d0000 	strvs	r0, [sp], -r0
    29f6:	6873616c 	ldmdavs	r3!, {r2, r3, r5, r6, r8, sp, lr}^
    29fa:	2d726176 	ldfcse	f6, [r2, #-472]!	; 0xfffffe28
    29fe:	65726568 	ldrbvs	r6, [r2, #-1384]!	; 0x568

00002a02 <Code_677>:
    2a02:	f847 6d04 	str.w	r6, [r7, #-4]!
    2a06:	4e84      	ldr	r6, [pc, #528]	; (2c18 <Code_722+0x38>)
    2a08:	6836      	ldr	r6, [r6, #0]
    2a0a:	4770      	bx	lr

00002a0c <nullprobekomma>:
    2a0c:	b500      	push	{lr}
    2a0e:	f847 6d04 	str.w	r6, [r7, #-4]!
    2a12:	f642 6600 	movw	r6, #11776	; 0x2e00
    2a16:	f7ff fc99 	bl	234c <Code_559>
    2a1a:	f847 6d04 	str.w	r6, [r7, #-4]!
    2a1e:	f64c 7640 	movw	r6, #53056	; 0xcf40
    2a22:	f7ff fc93 	bl	234c <Code_559>
    2a26:	bd00      	pop	{pc}

00002a28 <branch_r>:
    2a28:	e7dc      	b.n	29e4 <Code_675>

00002a2a <r_branch_jne>:
    2a2a:	b500      	push	{lr}
    2a2c:	f000 f83a 	bl	2aa4 <branch_v>
    2a30:	6839      	ldr	r1, [r7, #0]
    2a32:	603e      	str	r6, [r7, #0]
    2a34:	460e      	mov	r6, r1
    2a36:	f847 6d04 	str.w	r6, [r7, #-4]!
    2a3a:	f24d 1600 	movw	r6, #53504	; 0xd100
    2a3e:	f7ff ff89 	bl	2954 <Code_666>
    2a42:	bd00      	pop	{pc}

00002a44 <r_branch_jvc>:
    2a44:	b500      	push	{lr}
    2a46:	f000 f82d 	bl	2aa4 <branch_v>
    2a4a:	6839      	ldr	r1, [r7, #0]
    2a4c:	603e      	str	r6, [r7, #0]
    2a4e:	460e      	mov	r6, r1
    2a50:	f847 6d04 	str.w	r6, [r7, #-4]!
    2a54:	f24d 7600 	movw	r6, #55040	; 0xd700
    2a58:	f7ff ff7c 	bl	2954 <Code_666>
    2a5c:	bd00      	pop	{pc}

00002a5e <r_nullbranch>:
    2a5e:	b500      	push	{lr}
    2a60:	f7ff ffd4 	bl	2a0c <nullprobekomma>
    2a64:	f000 f81e 	bl	2aa4 <branch_v>
    2a68:	6839      	ldr	r1, [r7, #0]
    2a6a:	603e      	str	r6, [r7, #0]
    2a6c:	460e      	mov	r6, r1
    2a6e:	f847 6d04 	str.w	r6, [r7, #-4]!
    2a72:	f24d 0600 	movw	r6, #53248	; 0xd000
    2a76:	f7ff ff6d 	bl	2954 <Code_666>
    2a7a:	bd00      	pop	{pc}

00002a7c <r_branch>:
    2a7c:	b500      	push	{lr}
    2a7e:	f000 f811 	bl	2aa4 <branch_v>
    2a82:	6839      	ldr	r1, [r7, #0]
    2a84:	603e      	str	r6, [r7, #0]
    2a86:	460e      	mov	r6, r1
    2a88:	f7ff ff90 	bl	29ac <Code_670>
    2a8c:	bd00      	pop	{pc}

00002a8e <nullbranch_v>:
    2a8e:	b500      	push	{lr}
    2a90:	f7ff ffbc 	bl	2a0c <nullprobekomma>
    2a94:	f7ff ffa6 	bl	29e4 <Code_675>
    2a98:	f847 6d04 	str.w	r6, [r7, #-4]!
    2a9c:	2602      	movs	r6, #2
    2a9e:	f7ff fcc1 	bl	2424 <Code_579>
    2aa2:	bd00      	pop	{pc}

00002aa4 <branch_v>:
    2aa4:	b500      	push	{lr}
    2aa6:	f7ff ff9d 	bl	29e4 <Code_675>
    2aaa:	f847 6d04 	str.w	r6, [r7, #-4]!
    2aae:	2602      	movs	r6, #2
    2ab0:	f7ff fcb8 	bl	2424 <Code_579>
    2ab4:	bd00      	pop	{pc}

00002ab6 <v_branch>:
    2ab6:	b500      	push	{lr}
    2ab8:	f7ff ff94 	bl	29e4 <Code_675>
    2abc:	f7ff ff76 	bl	29ac <Code_670>
    2ac0:	bd00      	pop	{pc}

00002ac2 <v_nullbranch>:
    2ac2:	b500      	push	{lr}
    2ac4:	f7ff ff8e 	bl	29e4 <Code_675>
    2ac8:	f847 6d04 	str.w	r6, [r7, #-4]!
    2acc:	f24d 0600 	movw	r6, #53248	; 0xd000
    2ad0:	f7ff ff40 	bl	2954 <Code_666>
    2ad4:	bd00      	pop	{pc}

00002ad6 <v_casebranch>:
    2ad6:	b500      	push	{lr}
    2ad8:	f7ff ff84 	bl	29e4 <Code_675>
    2adc:	f847 6d04 	str.w	r6, [r7, #-4]!
    2ae0:	f24d 1600 	movw	r6, #53504	; 0xd100
    2ae4:	f7ff ff36 	bl	2954 <Code_666>
    2ae8:	bd00      	pop	{pc}

00002aea <Dictionary_701>:
    2aea:	00002b26 	andeq	r2, r0, r6, lsr #22
    2aee:	74040030 	strvc	r0, [r4], #-48	; 0x30
    2af2:	006e6568 	rsbeq	r6, lr, r8, ror #10

00002af6 <Code_701>:
    2af6:	2e05      	cmp	r6, #5
    2af8:	d101      	bne.n	2afe <Code_701+0x8>
    2afa:	cf40      	ldmia	r7!, {r6}
    2afc:	e7db      	b.n	2ab6 <v_branch>
    2afe:	2e02      	cmp	r6, #2
    2b00:	d101      	bne.n	2b06 <strukturen_passen_nicht>
    2b02:	cf40      	ldmia	r7!, {r6}
    2b04:	e7dd      	b.n	2ac2 <v_nullbranch>

00002b06 <strukturen_passen_nicht>:
    2b06:	f7fe fece 	bl	18a6 <dotgaensefuesschen>
    2b0a:	72745317 	rsbsvc	r5, r4, #1543503872	; 0x5c000000
    2b0e:	75746375 	ldrbvc	r6, [r4, #-885]!	; 0x375
    2b12:	20736572 	rsbscs	r6, r3, r2, ror r5
    2b16:	276e6f64 	strbcs	r6, [lr, -r4, ror #30]!
    2b1a:	616d2074 	smcvs	53764	; 0xd204
    2b1e:	0a686374 	beq	1a1b8f6 <BIT24+0xa1b8f6>
    2b22:	f000 bda3 	b.w	366c <Code_940>

00002b26 <Dictionary_705>:
    2b26:	00002b52 	andeq	r2, r0, r2, asr fp
    2b2a:	65040030 	strvs	r0, [r4, #-48]	; 0x30
    2b2e:	0065736c 	rsbeq	r7, r5, ip, ror #6

00002b32 <Code_705>:
    2b32:	b500      	push	{lr}
    2b34:	2e02      	cmp	r6, #2
    2b36:	f47f afe6 	bne.w	2b06 <strukturen_passen_nicht>
    2b3a:	cf40      	ldmia	r7!, {r6}
    2b3c:	f7ff ffb2 	bl	2aa4 <branch_v>
    2b40:	6839      	ldr	r1, [r7, #0]
    2b42:	603e      	str	r6, [r7, #0]
    2b44:	460e      	mov	r6, r1
    2b46:	f7ff ffbc 	bl	2ac2 <v_nullbranch>
    2b4a:	f847 6d04 	str.w	r6, [r7, #-4]!
    2b4e:	2605      	movs	r6, #5
    2b50:	bd00      	pop	{pc}

00002b52 <Dictionary_710>:
    2b52:	00002b6a 	andeq	r2, r0, sl, ror #22
    2b56:	69020030 	stmdbvs	r2, {r4, r5}
    2b5a:	b5000066 	strlt	r0, [r0, #-102]	; 0x66

00002b5c <Code_710>:
    2b5c:	b500      	push	{lr}
    2b5e:	f7ff ff96 	bl	2a8e <nullbranch_v>
    2b62:	f847 6d04 	str.w	r6, [r7, #-4]!
    2b66:	2602      	movs	r6, #2
    2b68:	bd00      	pop	{pc}

00002b6a <Dictionary_713>:
    2b6a:	00002b90 	muleq	r0, r0, fp
    2b6e:	72060030 	andvc	r0, r6, #48	; 0x30
    2b72:	61657065 	cmnvs	r5, r5, rrx
    2b76:	2e040074 	mcrcs	0, 0, r0, cr4, cr4, {3}

00002b78 <Code_713>:
    2b78:	2e04      	cmp	r6, #4
    2b7a:	d1c4      	bne.n	2b06 <strukturen_passen_nicht>
    2b7c:	cf40      	ldmia	r7!, {r6}
    2b7e:	6839      	ldr	r1, [r7, #0]
    2b80:	603e      	str	r6, [r7, #0]
    2b82:	460e      	mov	r6, r1
    2b84:	b500      	push	{lr}
    2b86:	f7ff ff79 	bl	2a7c <r_branch>
    2b8a:	f7ff ff9a 	bl	2ac2 <v_nullbranch>
    2b8e:	bd00      	pop	{pc}

00002b90 <Dictionary_716>:
    2b90:	00002bac 	andeq	r2, r0, ip, lsr #23
    2b94:	77050030 	smladxvc	r5, r0, r0, r0
    2b98:	656c6968 	strbvs	r6, [ip, #-2408]!	; 0x968

00002b9c <Code_716>:
    2b9c:	2e01      	cmp	r6, #1
    2b9e:	d1b2      	bne.n	2b06 <strukturen_passen_nicht>
    2ba0:	cf40      	ldmia	r7!, {r6}
    2ba2:	b500      	push	{lr}
    2ba4:	f7ff ffda 	bl	2b5c <Code_710>
    2ba8:	3602      	adds	r6, #2
    2baa:	bd00      	pop	{pc}

00002bac <Dictionary_718>:
    2bac:	00002bc0 	andeq	r2, r0, r0, asr #23
    2bb0:	75050030 	strvc	r0, [r5, #-48]	; 0x30
    2bb4:	6c69746e 	cfstrdvs	mvd7, [r9], #-440	; 0xfffffe48

00002bb8 <Code_718>:
    2bb8:	2e01      	cmp	r6, #1
    2bba:	d1a4      	bne.n	2b06 <strukturen_passen_nicht>
    2bbc:	cf40      	ldmia	r7!, {r6}
    2bbe:	e74e      	b.n	2a5e <r_nullbranch>

00002bc0 <Dictionary_720>:
    2bc0:	00002bd4 	ldrdeq	r2, [r0], -r4
    2bc4:	61050030 	tstvs	r5, r0, lsr r0
    2bc8:	6e696167 	powvsez	f6, f1, f7

00002bcc <Code_720>:
    2bcc:	2e01      	cmp	r6, #1
    2bce:	d19a      	bne.n	2b06 <strukturen_passen_nicht>
    2bd0:	cf40      	ldmia	r7!, {r6}
    2bd2:	e753      	b.n	2a7c <r_branch>

00002bd4 <Dictionary_722>:
    2bd4:	00002c1c 	andeq	r2, r0, ip, lsl ip
    2bd8:	62050030 	andvs	r0, r5, #48	; 0x30
    2bdc:	6e696765 	cdpvs	7, 6, cr6, cr9, cr5, {3}

00002be0 <Code_722>:
    2be0:	b500      	push	{lr}
    2be2:	f7ff ff21 	bl	2a28 <branch_r>
    2be6:	f847 6d04 	str.w	r6, [r7, #-4]!
    2bea:	2601      	movs	r6, #1
    2bec:	bd00      	pop	{pc}
    2bee:	00000000 	andeq	r0, r0, r0
    2bf2:	01882000 	orreq	r2, r8, r0
    2bf6:	00040000 	andeq	r0, r4, r0
    2bfa:	ffff2000 			; <UNDEFINED> instruction: 0xffff2000
    2bfe:	ffffffff 			; <UNDEFINED> instruction: 0xffffffff
    2c02:	ff010000 			; <UNDEFINED> instruction: 0xff010000
    2c06:	ff00ffff 			; <UNDEFINED> instruction: 0xff00ffff
    2c0a:	f801ffff 			; <UNDEFINED> instruction: 0xf801ffff
    2c0e:	f800ffff 			; <UNDEFINED> instruction: 0xf800ffff
    2c12:	07ffffff 			; <UNDEFINED> instruction: 0x07ffffff
    2c16:	00240000 	eoreq	r0, r4, r0
    2c1a:	2c2c2000 	stccs	0, cr2, [ip], #-0

00002c1c <Dictionary_725>:
    2c1c:	00002c2c 	andeq	r2, r0, ip, lsr #24
    2c20:	6b010020 	blvs	42ca8 <BIT18+0x2ca8>

00002c24 <Code_725>:
    2c24:	f847 6d04 	str.w	r6, [r7, #-4]!
    2c28:	9e02      	ldr	r6, [sp, #8]
    2c2a:	4770      	bx	lr

00002c2c <Dictionary_727>:
    2c2c:	00002c3c 	andeq	r2, r0, ip, lsr ip
    2c30:	6a010020 	bvs	42cb8 <BIT18+0x2cb8>

00002c34 <Code_727>:
    2c34:	f847 6d04 	str.w	r6, [r7, #-4]!
    2c38:	9e00      	ldr	r6, [sp, #0]
    2c3a:	4770      	bx	lr

00002c3c <Dictionary_729>:
    2c3c:	00002c4c 	andeq	r2, r0, ip, asr #24
    2c40:	69010020 	stmdbvs	r1, {r5}

00002c44 <Code_729>:
    2c44:	f847 6d04 	str.w	r6, [r7, #-4]!
    2c48:	0026      	movs	r6, r4
    2c4a:	4770      	bx	lr

00002c4c <Dictionary_732>:
    2c4c:	00002c8a 	andeq	r2, r0, sl, lsl #25
    2c50:	6c050030 	stcvs	0, cr0, [r5], {48}	; 0x30
    2c54:	65766165 	ldrbvs	r6, [r6, #-357]!	; 0x165

00002c58 <Code_732>:
    2c58:	b500      	push	{lr}
    2c5a:	48d9      	ldr	r0, [pc, #868]	; (2fc0 <Code_815+0x4c>)
    2c5c:	6801      	ldr	r1, [r0, #0]
    2c5e:	003b      	movs	r3, r7
    2c60:	3f04      	subs	r7, #4
    2c62:	681a      	ldr	r2, [r3, #0]
    2c64:	3b04      	subs	r3, #4
    2c66:	601a      	str	r2, [r3, #0]
    2c68:	3308      	adds	r3, #8
    2c6a:	428b      	cmp	r3, r1
    2c6c:	d1f9      	bne.n	2c62 <Code_732+0xa>
    2c6e:	b403      	push	{r0, r1}
    2c70:	f7ff ff18 	bl	2aa4 <branch_v>
    2c74:	bc03      	pop	{r0, r1}
    2c76:	0033      	movs	r3, r6
    2c78:	cf40      	ldmia	r7!, {r6}
    2c7a:	3904      	subs	r1, #4
    2c7c:	600b      	str	r3, [r1, #0]
    2c7e:	6001      	str	r1, [r0, #0]
    2c80:	3904      	subs	r1, #4
    2c82:	680a      	ldr	r2, [r1, #0]
    2c84:	3201      	adds	r2, #1
    2c86:	600a      	str	r2, [r1, #0]
    2c88:	bd00      	pop	{pc}

00002c8a <Dictionary_734>:
    2c8a:	00002c9c 	muleq	r0, ip, ip
    2c8e:	75060020 	strvc	r0, [r6, #-32]
    2c92:	6f6f6c6e 	svcvs	0x006f6c6e
    2c96:	bc300070 	ldclt	0, cr0, [r0], #-448	; 0xfffffe40

00002c98 <Code_734>:
    2c98:	bc30      	pop	{r4, r5}
    2c9a:	4770      	bx	lr

00002c9c <Dictionary_735>:
    2c9c:	00002cd4 	ldrdeq	r2, [r0], -r4
    2ca0:	2b050030 	blcs	142d68 <BIT20+0x42d68>
    2ca4:	706f6f6c 	rsbvc	r6, pc, ip, ror #30

00002ca8 <Code_735>:
    2ca8:	2e03      	cmp	r6, #3
    2caa:	d000      	beq.n	2cae <Code_735+0x6>
    2cac:	e72b      	b.n	2b06 <strukturen_passen_nicht>
    2cae:	cf40      	ldmia	r7!, {r6}
    2cb0:	b500      	push	{lr}
    2cb2:	f847 6d04 	str.w	r6, [r7, #-4]!
    2cb6:	4ec3      	ldr	r6, [pc, #780]	; (2fc4 <Code_815+0x50>)
    2cb8:	f7ff f924 	bl	1f04 <Code_474>
    2cbc:	f7ff fec2 	bl	2a44 <r_branch_jvc>
    2cc0:	e01a      	b.n	2cf8 <loop_intern>

00002cc2 <struktur_plusloop>:
    2cc2:	f114 4400 	adds.w	r4, r4, #2147483648	; 0x80000000
    2cc6:	1b64      	subs	r4, r4, r5
    2cc8:	19a4      	adds	r4, r4, r6
    2cca:	cf40      	ldmia	r7!, {r6}
    2ccc:	442c      	add	r4, r5
    2cce:	f1a4 4400 	sub.w	r4, r4, #2147483648	; 0x80000000
    2cd2:	4770      	bx	lr

00002cd4 <Dictionary_739>:
    2cd4:	00002d16 	andeq	r2, r0, r6, lsl sp
    2cd8:	6c040030 	stcvs	0, cr0, [r4], {48}	; 0x30
    2cdc:	00706f6f 	rsbseq	r6, r0, pc, ror #30

00002ce0 <Code_739>:
    2ce0:	2e03      	cmp	r6, #3
    2ce2:	d000      	beq.n	2ce6 <Code_739+0x6>
    2ce4:	e70f      	b.n	2b06 <strukturen_passen_nicht>
    2ce6:	cf40      	ldmia	r7!, {r6}
    2ce8:	b500      	push	{lr}
    2cea:	f847 6d04 	str.w	r6, [r7, #-4]!
    2cee:	4eb6      	ldr	r6, [pc, #728]	; (2fc8 <Code_815+0x54>)
    2cf0:	f7ff f908 	bl	1f04 <Code_474>
    2cf4:	f7ff fe99 	bl	2a2a <r_branch_jne>

00002cf8 <loop_intern>:
    2cf8:	f000 f918 	bl	2f2c <spruenge_einpflegen>
    2cfc:	48b0      	ldr	r0, [pc, #704]	; (2fc0 <Code_815+0x4c>)
    2cfe:	0031      	movs	r1, r6
    2d00:	cf40      	ldmia	r7!, {r6}
    2d02:	6001      	str	r1, [r0, #0]
    2d04:	f847 6d04 	str.w	r6, [r7, #-4]!
    2d08:	4eb0      	ldr	r6, [pc, #704]	; (2fcc <Code_815+0x58>)
    2d0a:	f7ff f8fb 	bl	1f04 <Code_474>
    2d0e:	bd00      	pop	{pc}

00002d10 <struktur_loop>:
    2d10:	3401      	adds	r4, #1
    2d12:	42ac      	cmp	r4, r5
    2d14:	4770      	bx	lr

00002d16 <Dictionary_744>:
    2d16:	00002d5e 	andeq	r2, r0, lr, asr sp
    2d1a:	64020078 	strvs	r0, [r2], #-120	; 0x78
    2d1e:	b500006f 	strlt	r0, [r0, #-111]	; 0x6f

00002d20 <Code_744>:
    2d20:	b500      	push	{lr}
    2d22:	f847 6d04 	str.w	r6, [r7, #-4]!
    2d26:	4eaa      	ldr	r6, [pc, #680]	; (2fd0 <Code_815+0x5c>)
    2d28:	f7ff f8ec 	bl	1f04 <Code_474>

00002d2c <do_rest_der_schleifenstruktur>:
    2d2c:	48a4      	ldr	r0, [pc, #656]	; (2fc0 <Code_815+0x4c>)
    2d2e:	6801      	ldr	r1, [r0, #0]
    2d30:	f847 6d04 	str.w	r6, [r7, #-4]!
    2d34:	000e      	movs	r6, r1
    2d36:	f847 6d04 	str.w	r6, [r7, #-4]!
    2d3a:	2600      	movs	r6, #0
    2d3c:	6007      	str	r7, [r0, #0]
    2d3e:	f7ff fe73 	bl	2a28 <branch_r>
    2d42:	f847 6d04 	str.w	r6, [r7, #-4]!
    2d46:	2603      	movs	r6, #3
    2d48:	bd00      	pop	{pc}
    2d4a:	b500      	push	{lr}
    2d4c:	f000 f82f 	bl	2dae <gemeinsame_schleifenoptimierung>
    2d50:	e7ec      	b.n	2d2c <do_rest_der_schleifenstruktur>

00002d52 <struktur_do>:
    2d52:	b430      	push	{r4, r5}
    2d54:	0034      	movs	r4, r6
    2d56:	cf40      	ldmia	r7!, {r6}
    2d58:	0035      	movs	r5, r6
    2d5a:	cf40      	ldmia	r7!, {r6}
    2d5c:	4770      	bx	lr

00002d5e <Dictionary_754>:
    2d5e:	00002df8 	strdeq	r2, [r0], -r8
    2d62:	3f030078 	svccc	0x00030078
    2d66:	b5006f64 	strlt	r6, [r0, #-3940]	; 0xf64

00002d68 <Code_754>:
    2d68:	b500      	push	{lr}
    2d6a:	f847 6d04 	str.w	r6, [r7, #-4]!
    2d6e:	4e98      	ldr	r6, [pc, #608]	; (2fd0 <Code_815+0x5c>)
    2d70:	f7ff f8c8 	bl	1f04 <Code_474>

00002d74 <qdo_rest_der_schleifenstruktur>:
    2d74:	f847 6d04 	str.w	r6, [r7, #-4]!
    2d78:	f244 26ac 	movw	r6, #17068	; 0x42ac
    2d7c:	f7ff fae6 	bl	234c <Code_559>
    2d80:	488f      	ldr	r0, [pc, #572]	; (2fc0 <Code_815+0x4c>)
    2d82:	6801      	ldr	r1, [r0, #0]
    2d84:	f847 6d04 	str.w	r6, [r7, #-4]!
    2d88:	000e      	movs	r6, r1
    2d8a:	f7ff fe8b 	bl	2aa4 <branch_v>
    2d8e:	3601      	adds	r6, #1
    2d90:	f847 6d04 	str.w	r6, [r7, #-4]!
    2d94:	2601      	movs	r6, #1
    2d96:	488a      	ldr	r0, [pc, #552]	; (2fc0 <Code_815+0x4c>)
    2d98:	6007      	str	r7, [r0, #0]
    2d9a:	f7ff fe45 	bl	2a28 <branch_r>
    2d9e:	f847 6d04 	str.w	r6, [r7, #-4]!
    2da2:	2603      	movs	r6, #3
    2da4:	bd00      	pop	{pc}
    2da6:	b500      	push	{lr}
    2da8:	f000 f801 	bl	2dae <gemeinsame_schleifenoptimierung>
    2dac:	e7e2      	b.n	2d74 <qdo_rest_der_schleifenstruktur>

00002dae <gemeinsame_schleifenoptimierung>:
    2dae:	b500      	push	{lr}
    2db0:	f847 6d04 	str.w	r6, [r7, #-4]!
    2db4:	f24b 4630 	movw	r6, #46128	; 0xb430
    2db8:	f7ff fac8 	bl	234c <Code_559>
    2dbc:	f847 6d04 	str.w	r6, [r7, #-4]!
    2dc0:	2604      	movs	r6, #4
    2dc2:	f7fe ff6b 	bl	1c9c <Code_431>
    2dc6:	3b01      	subs	r3, #1
    2dc8:	d008      	beq.n	2ddc <gemeinsame_schleifenoptimierung+0x2e>
    2dca:	f847 6d04 	str.w	r6, [r7, #-4]!
    2dce:	2605      	movs	r6, #5
    2dd0:	f7fe ff64 	bl	1c9c <Code_431>
    2dd4:	3b01      	subs	r3, #1
    2dd6:	f000 fc22 	bl	361e <konstantenschreiben>
    2dda:	bd00      	pop	{pc}
    2ddc:	f847 6d04 	str.w	r6, [r7, #-4]!
    2de0:	2635      	movs	r6, #53	; 0x35
    2de2:	f7ff fab3 	bl	234c <Code_559>
    2de6:	f847 6d04 	str.w	r6, [r7, #-4]!
    2dea:	f64c 7640 	movw	r6, #53056	; 0xcf40
    2dee:	f7ff faad 	bl	234c <Code_559>
    2df2:	f000 fc14 	bl	361e <konstantenschreiben>
    2df6:	bd00      	pop	{pc}

00002df8 <Dictionary_774>:
    2df8:	00002e12 	andeq	r2, r0, r2, lsl lr
    2dfc:	63040030 	movwvs	r0, #16432	; 0x4030
    2e00:	00657361 	rsbeq	r7, r5, r1, ror #6

00002e04 <Code_774>:
    2e04:	f847 6d04 	str.w	r6, [r7, #-4]!
    2e08:	2600      	movs	r6, #0
    2e0a:	f847 6d04 	str.w	r6, [r7, #-4]!
    2e0e:	2608      	movs	r6, #8
    2e10:	4770      	bx	lr

00002e12 <Dictionary_779>:
    2e12:	00002e28 	andeq	r2, r0, r8, lsr #28
    2e16:	3f030030 	svccc	0x00030030
    2e1a:	486d666f 	stmdami	sp!, {r0, r1, r2, r3, r5, r6, r9, sl, sp, lr}^

00002e1c <Code_779>:
    2e1c:	486d      	ldr	r0, [pc, #436]	; (2fd4 <Code_815+0x60>)
    2e1e:	e009      	b.n	2e34 <of_inneneinsprung>

00002e20 <struktur_qof>:
    2e20:	3e01      	subs	r6, #1
    2e22:	41b6      	sbcs	r6, r6
    2e24:	cf40      	ldmia	r7!, {r6}
    2e26:	4770      	bx	lr

00002e28 <Dictionary_781>:
    2e28:	00002ecc 	andeq	r2, r0, ip, asr #29
    2e2c:	6f020078 	svcvs	0x00020078
    2e30:	48690066 	stmdami	r9!, {r1, r2, r5, r6}^

00002e32 <Code_781>:
    2e32:	4869      	ldr	r0, [pc, #420]	; (2fd8 <Code_815+0x64>)

00002e34 <of_inneneinsprung>:
    2e34:	2e08      	cmp	r6, #8
    2e36:	d000      	beq.n	2e3a <of_inneneinsprung+0x6>
    2e38:	e665      	b.n	2b06 <strukturen_passen_nicht>
    2e3a:	cf40      	ldmia	r7!, {r6}
    2e3c:	b500      	push	{lr}
    2e3e:	f847 6d04 	str.w	r6, [r7, #-4]!
    2e42:	0006      	movs	r6, r0
    2e44:	f7ff f85e 	bl	1f04 <Code_474>

00002e48 <of_opcodiereinsprung>:
    2e48:	f7ff fe2c 	bl	2aa4 <branch_v>
    2e4c:	6839      	ldr	r1, [r7, #0]
    2e4e:	603e      	str	r6, [r7, #0]
    2e50:	460e      	mov	r6, r1
    2e52:	3601      	adds	r6, #1
    2e54:	f847 6d04 	str.w	r6, [r7, #-4]!
    2e58:	2609      	movs	r6, #9
    2e5a:	f847 6d04 	str.w	r6, [r7, #-4]!
    2e5e:	f64c 7640 	movw	r6, #53056	; 0xcf40
    2e62:	f7ff fa73 	bl	234c <Code_559>
    2e66:	bd00      	pop	{pc}
    2e68:	b500      	push	{lr}
    2e6a:	0030      	movs	r0, r6
    2e6c:	cf40      	ldmia	r7!, {r6}
    2e6e:	3b01      	subs	r3, #1
    2e70:	b401      	push	{r0}
    2e72:	f000 fbd4 	bl	361e <konstantenschreiben>
    2e76:	bc01      	pop	{r0}
    2e78:	2e08      	cmp	r6, #8
    2e7a:	d000      	beq.n	2e7e <of_opcodiereinsprung+0x36>
    2e7c:	e643      	b.n	2b06 <strukturen_passen_nicht>
    2e7e:	cf40      	ldmia	r7!, {r6}
    2e80:	f847 6d04 	str.w	r6, [r7, #-4]!
    2e84:	0006      	movs	r6, r0
    2e86:	21ff      	movs	r1, #255	; 0xff
    2e88:	4031      	ands	r1, r6
    2e8a:	42b1      	cmp	r1, r6
    2e8c:	d104      	bne.n	2e98 <of_opcodiereinsprung+0x50>
    2e8e:	4953      	ldr	r1, [pc, #332]	; (2fdc <Code_815+0x68>)
    2e90:	430e      	orrs	r6, r1
    2e92:	f7ff fa5b 	bl	234c <Code_559>
    2e96:	e7d7      	b.n	2e48 <of_opcodiereinsprung>
    2e98:	f7fe fe4c 	bl	1b34 <Code_422>
    2e9c:	2e00      	cmp	r6, #0
    2e9e:	cf40      	ldmia	r7!, {r6}
    2ea0:	d004      	beq.n	2eac <of_opcodiereinsprung+0x64>
    2ea2:	484f      	ldr	r0, [pc, #316]	; (2fe0 <Code_815+0x6c>)
    2ea4:	4306      	orrs	r6, r0
    2ea6:	f7ff fa7a 	bl	239e <Code_568>
    2eaa:	e7cd      	b.n	2e48 <of_opcodiereinsprung>
    2eac:	f847 6d04 	str.w	r6, [r7, #-4]!
    2eb0:	2600      	movs	r6, #0
    2eb2:	f7fe fef3 	bl	1c9c <Code_431>
    2eb6:	f847 6d04 	str.w	r6, [r7, #-4]!
    2eba:	f244 26b0 	movw	r6, #17072	; 0x42b0
    2ebe:	f7ff fa45 	bl	234c <Code_559>
    2ec2:	e7c1      	b.n	2e48 <of_opcodiereinsprung>

00002ec4 <struktur_of>:
    2ec4:	0030      	movs	r0, r6
    2ec6:	cf40      	ldmia	r7!, {r6}
    2ec8:	42b0      	cmp	r0, r6
    2eca:	4770      	bx	lr

00002ecc <Dictionary_800>:
    2ecc:	00002f02 	andeq	r2, r0, r2, lsl #30
    2ed0:	65050030 	strvs	r0, [r5, #-48]	; 0x30
    2ed4:	666f646e 	strbtvs	r6, [pc], -lr, ror #8

00002ed8 <Code_800>:
    2ed8:	2e09      	cmp	r6, #9
    2eda:	d000      	beq.n	2ede <Code_800+0x6>
    2edc:	e613      	b.n	2b06 <strukturen_passen_nicht>
    2ede:	cf40      	ldmia	r7!, {r6}
    2ee0:	b500      	push	{lr}
    2ee2:	b440      	push	{r6}
    2ee4:	cf40      	ldmia	r7!, {r6}
    2ee6:	f7ff fddd 	bl	2aa4 <branch_v>
    2eea:	6839      	ldr	r1, [r7, #0]
    2eec:	603e      	str	r6, [r7, #0]
    2eee:	460e      	mov	r6, r1
    2ef0:	f7ff fdf1 	bl	2ad6 <v_casebranch>
    2ef4:	f847 6d04 	str.w	r6, [r7, #-4]!
    2ef8:	bc40      	pop	{r6}
    2efa:	f847 6d04 	str.w	r6, [r7, #-4]!
    2efe:	2608      	movs	r6, #8
    2f00:	bd00      	pop	{pc}

00002f02 <Dictionary_808>:
    2f02:	00002f54 	andeq	r2, r0, r4, asr pc
    2f06:	65070030 	strvs	r0, [r7, #-48]	; 0x30
    2f0a:	6163646e 	cmnvs	r3, lr, ror #8
    2f0e:	2e086573 	cfrshl64cs	mvdx8, mvdx3, r6

00002f10 <Code_808>:
    2f10:	2e08      	cmp	r6, #8
    2f12:	d000      	beq.n	2f16 <Code_808+0x6>
    2f14:	e5f7      	b.n	2b06 <strukturen_passen_nicht>
    2f16:	cf40      	ldmia	r7!, {r6}
    2f18:	b500      	push	{lr}
    2f1a:	f847 6d04 	str.w	r6, [r7, #-4]!
    2f1e:	f64c 7640 	movw	r6, #53056	; 0xcf40
    2f22:	f7ff fa13 	bl	234c <Code_559>
    2f26:	f000 f801 	bl	2f2c <spruenge_einpflegen>
    2f2a:	bd00      	pop	{pc}

00002f2c <spruenge_einpflegen>:
    2f2c:	b500      	push	{lr}
    2f2e:	0030      	movs	r0, r6
    2f30:	cf40      	ldmia	r7!, {r6}
    2f32:	2800      	cmp	r0, #0
    2f34:	d00d      	beq.n	2f52 <spruenge_einpflegen+0x26>
    2f36:	b403      	push	{r0, r1}
    2f38:	2101      	movs	r1, #1
    2f3a:	4031      	ands	r1, r6
    2f3c:	2900      	cmp	r1, #0
    2f3e:	d003      	beq.n	2f48 <spruenge_einpflegen+0x1c>
    2f40:	3e01      	subs	r6, #1
    2f42:	f7ff fdbe 	bl	2ac2 <v_nullbranch>
    2f46:	e001      	b.n	2f4c <spruenge_einpflegen+0x20>
    2f48:	f7ff fdb5 	bl	2ab6 <v_branch>
    2f4c:	bc03      	pop	{r0, r1}
    2f4e:	3801      	subs	r0, #1
    2f50:	e7ef      	b.n	2f32 <spruenge_einpflegen+0x6>
    2f52:	bd00      	pop	{pc}

00002f54 <Dictionary_813>:
    2f54:	00002f68 	andeq	r2, r0, r8, ror #30
    2f58:	74050000 	strvc	r0, [r5], #-0
    2f5c:	6e656b6f 	vnmulvs.f64	d22, d5, d31

00002f60 <Code_813>:
    2f60:	f847 6d04 	str.w	r6, [r7, #-4]!
    2f64:	2620      	movs	r6, #32
    2f66:	e005      	b.n	2f74 <Code_815>

00002f68 <Dictionary_815>:
    2f68:	00002fe8 	andeq	r2, r0, r8, ror #31
    2f6c:	70050000 	andvc	r0, r5, r0
    2f70:	65737261 	ldrbvs	r7, [r3, #-609]!	; 0x261

00002f74 <Code_815>:
    2f74:	b510      	push	{r4, lr}
    2f76:	f7fe fbe0 	bl	173a <Code_330>
    2f7a:	0031      	movs	r1, r6
    2f7c:	cf40      	ldmia	r7!, {r6}
    2f7e:	0030      	movs	r0, r6
    2f80:	cf40      	ldmia	r7!, {r6}
    2f82:	4a18      	ldr	r2, [pc, #96]	; (2fe4 <Code_815+0x70>)
    2f84:	6812      	ldr	r2, [r2, #0]
    2f86:	1884      	adds	r4, r0, r2
    2f88:	2e20      	cmp	r6, #32
    2f8a:	d107      	bne.n	2f9c <Code_815+0x28>
    2f8c:	4291      	cmp	r1, r2
    2f8e:	d00f      	beq.n	2fb0 <Code_815+0x3c>
    2f90:	5c83      	ldrb	r3, [r0, r2]
    2f92:	42b3      	cmp	r3, r6
    2f94:	d102      	bne.n	2f9c <Code_815+0x28>
    2f96:	3201      	adds	r2, #1
    2f98:	1884      	adds	r4, r0, r2
    2f9a:	e7f7      	b.n	2f8c <Code_815+0x18>
    2f9c:	4291      	cmp	r1, r2
    2f9e:	d007      	beq.n	2fb0 <Code_815+0x3c>
    2fa0:	5c83      	ldrb	r3, [r0, r2]
    2fa2:	3201      	adds	r2, #1
    2fa4:	42b3      	cmp	r3, r6
    2fa6:	d1f9      	bne.n	2f9c <Code_815+0x28>
    2fa8:	1886      	adds	r6, r0, r2
    2faa:	1b36      	subs	r6, r6, r4
    2fac:	3e01      	subs	r6, #1
    2fae:	e001      	b.n	2fb4 <Code_815+0x40>
    2fb0:	1886      	adds	r6, r0, r2
    2fb2:	1b36      	subs	r6, r6, r4
    2fb4:	3f04      	subs	r7, #4
    2fb6:	603c      	str	r4, [r7, #0]
    2fb8:	480a      	ldr	r0, [pc, #40]	; (2fe4 <Code_815+0x70>)
    2fba:	6002      	str	r2, [r0, #0]
    2fbc:	bd10      	pop	{r4, pc}
    2fbe:	000c0000 	andeq	r0, ip, r0
    2fc2:	2cc22000 	stclcs	0, cr2, [r2], {0}
    2fc6:	2d100000 	ldccs	0, cr0, [r0, #-0]
    2fca:	2c980000 	ldccs	0, cr0, [r8], {0}
    2fce:	2d520000 	ldclcs	0, cr0, [r2, #-0]
    2fd2:	2e200000 	cdpcs	0, 2, cr0, cr0, cr0, {0}
    2fd6:	2ec40000 	cdpcs	0, 12, cr0, cr4, cr0, {0}
    2fda:	2e000000 	cdpcs	0, 0, cr0, cr0, cr0, {0}
    2fde:	0f000000 	svceq	0x00000000
    2fe2:	ffe4f1b6 			; <UNDEFINED> instruction: 0xffe4f1b6
    2fe6:	30262001 	eorcc	r2, r6, r1

00002fe8 <Dictionary_818>:
    2fe8:	00003026 	andeq	r3, r0, r6, lsr #32
    2fec:	64050000 	strvs	r0, [r5], #-0
    2ff0:	74696769 	strbtvc	r6, [r9], #-1897	; 0x769

00002ff4 <Code_818>:
    2ff4:	4bce      	ldr	r3, [pc, #824]	; (3330 <Code_881+0x8>)
    2ff6:	681b      	ldr	r3, [r3, #0]

00002ff8 <digit_base_r3>:
    2ff8:	3e30      	subs	r6, #48	; 0x30
    2ffa:	d30b      	bcc.n	3014 <digit_base_r3+0x1c>
    2ffc:	2e0a      	cmp	r6, #10
    2ffe:	d30b      	bcc.n	3018 <digit_base_r3+0x20>
    3000:	3e07      	subs	r6, #7
    3002:	2e0a      	cmp	r6, #10
    3004:	d306      	bcc.n	3014 <digit_base_r3+0x1c>
    3006:	2e24      	cmp	r6, #36	; 0x24
    3008:	d306      	bcc.n	3018 <digit_base_r3+0x20>
    300a:	3e20      	subs	r6, #32
    300c:	2e0a      	cmp	r6, #10
    300e:	d301      	bcc.n	3014 <digit_base_r3+0x1c>
    3010:	2e24      	cmp	r6, #36	; 0x24
    3012:	d301      	bcc.n	3018 <digit_base_r3+0x20>
    3014:	2600      	movs	r6, #0
    3016:	4770      	bx	lr
    3018:	429e      	cmp	r6, r3
    301a:	d2fb      	bcs.n	3014 <digit_base_r3+0x1c>
    301c:	f847 6d04 	str.w	r6, [r7, #-4]!
    3020:	2600      	movs	r6, #0
    3022:	43f6      	mvns	r6, r6
    3024:	4770      	bx	lr

00003026 <Dictionary_820>:
    3026:	00003130 	andeq	r3, r0, r0, lsr r1
    302a:	6e060000 	cdpvs	0, 0, cr0, cr6, cr0, {0}
    302e:	65626d75 	strbvs	r6, [r2, #-3445]!	; 0xd75
    3032:	b53f0072 	ldrlt	r0, [pc, #-114]!	; 2fc8 <Code_815+0x54>

00003034 <Code_820>:
    3034:	b53f      	push	{r0, r1, r2, r3, r4, r5, lr}
    3036:	0031      	movs	r1, r6
    3038:	cf40      	ldmia	r7!, {r6}
    303a:	1e70      	subs	r0, r6, #1
    303c:	2601      	movs	r6, #1
    303e:	2201      	movs	r2, #1
    3040:	b404      	push	{r2}
    3042:	4bbb      	ldr	r3, [pc, #748]	; (3330 <Code_881+0x8>)
    3044:	681b      	ldr	r3, [r3, #0]
    3046:	2400      	movs	r4, #0
    3048:	2500      	movs	r5, #0
    304a:	2900      	cmp	r1, #0
    304c:	d03c      	beq.n	30c8 <Code_820+0x94>
    304e:	3001      	adds	r0, #1
    3050:	3901      	subs	r1, #1
    3052:	7802      	ldrb	r2, [r0, #0]
    3054:	2a2d      	cmp	r2, #45	; 0x2d
    3056:	d104      	bne.n	3062 <Code_820+0x2e>
    3058:	b001      	add	sp, #4
    305a:	2200      	movs	r2, #0
    305c:	43d2      	mvns	r2, r2
    305e:	b404      	push	{r2}
    3060:	e7f3      	b.n	304a <Code_820+0x16>
    3062:	2a23      	cmp	r2, #35	; 0x23
    3064:	d101      	bne.n	306a <Code_820+0x36>
    3066:	230a      	movs	r3, #10
    3068:	e7ef      	b.n	304a <Code_820+0x16>
    306a:	2a24      	cmp	r2, #36	; 0x24
    306c:	d101      	bne.n	3072 <Code_820+0x3e>
    306e:	2310      	movs	r3, #16
    3070:	e7eb      	b.n	304a <Code_820+0x16>
    3072:	2a25      	cmp	r2, #37	; 0x25
    3074:	d101      	bne.n	307a <Code_820+0x46>
    3076:	2302      	movs	r3, #2
    3078:	e7e7      	b.n	304a <Code_820+0x16>
    307a:	2a2e      	cmp	r2, #46	; 0x2e
    307c:	d101      	bne.n	3082 <Code_820+0x4e>
    307e:	2602      	movs	r6, #2
    3080:	e7e3      	b.n	304a <Code_820+0x16>
    3082:	2a2c      	cmp	r2, #44	; 0x2c
    3084:	d036      	beq.n	30f4 <number_nachkommastellen>
    3086:	f847 6d04 	str.w	r6, [r7, #-4]!
    308a:	0016      	movs	r6, r2
    308c:	f7ff ffb4 	bl	2ff8 <digit_base_r3>
    3090:	2e00      	cmp	r6, #0
    3092:	cf40      	ldmia	r7!, {r6}
    3094:	d02b      	beq.n	30ee <Code_820+0xba>
    3096:	f847 6d04 	str.w	r6, [r7, #-4]!
    309a:	0026      	movs	r6, r4
    309c:	f847 6d04 	str.w	r6, [r7, #-4]!
    30a0:	002e      	movs	r6, r5
    30a2:	f847 6d04 	str.w	r6, [r7, #-4]!
    30a6:	001e      	movs	r6, r3
    30a8:	f847 6d04 	str.w	r6, [r7, #-4]!
    30ac:	2600      	movs	r6, #0
    30ae:	b40f      	push	{r0, r1, r2, r3}
    30b0:	f7fd f996 	bl	3e0 <Code_49>
    30b4:	bc0f      	pop	{r0, r1, r2, r3}
    30b6:	0035      	movs	r5, r6
    30b8:	cf40      	ldmia	r7!, {r6}
    30ba:	0034      	movs	r4, r6
    30bc:	cf40      	ldmia	r7!, {r6}
    30be:	2200      	movs	r2, #0
    30c0:	19a4      	adds	r4, r4, r6
    30c2:	4155      	adcs	r5, r2
    30c4:	cf40      	ldmia	r7!, {r6}
    30c6:	e7c0      	b.n	304a <Code_820+0x16>
    30c8:	bc04      	pop	{r2}
    30ca:	2a00      	cmp	r2, #0
    30cc:	d504      	bpl.n	30d8 <Code_820+0xa4>
    30ce:	2200      	movs	r2, #0
    30d0:	43e4      	mvns	r4, r4
    30d2:	43ed      	mvns	r5, r5
    30d4:	3401      	adds	r4, #1
    30d6:	4155      	adcs	r5, r2
    30d8:	0033      	movs	r3, r6
    30da:	0026      	movs	r6, r4
    30dc:	2b01      	cmp	r3, #1
    30de:	d002      	beq.n	30e6 <Code_820+0xb2>
    30e0:	f847 6d04 	str.w	r6, [r7, #-4]!
    30e4:	002e      	movs	r6, r5
    30e6:	f847 6d04 	str.w	r6, [r7, #-4]!
    30ea:	001e      	movs	r6, r3
    30ec:	bd3f      	pop	{r0, r1, r2, r3, r4, r5, pc}
    30ee:	b001      	add	sp, #4
    30f0:	2600      	movs	r6, #0
    30f2:	bd3f      	pop	{r0, r1, r2, r3, r4, r5, pc}

000030f4 <number_nachkommastellen>:
    30f4:	0025      	movs	r5, r4
    30f6:	2400      	movs	r4, #0
    30f8:	2602      	movs	r6, #2
    30fa:	2900      	cmp	r1, #0
    30fc:	d0e4      	beq.n	30c8 <Code_820+0x94>
    30fe:	5c42      	ldrb	r2, [r0, r1]
    3100:	3901      	subs	r1, #1
    3102:	2a2e      	cmp	r2, #46	; 0x2e
    3104:	d0f9      	beq.n	30fa <number_nachkommastellen+0x6>
    3106:	f847 6d04 	str.w	r6, [r7, #-4]!
    310a:	0016      	movs	r6, r2
    310c:	f7ff ff74 	bl	2ff8 <digit_base_r3>
    3110:	2e00      	cmp	r6, #0
    3112:	cf40      	ldmia	r7!, {r6}
    3114:	d0eb      	beq.n	30ee <Code_820+0xba>
    3116:	3f04      	subs	r7, #4
    3118:	603c      	str	r4, [r7, #0]
    311a:	f847 6d04 	str.w	r6, [r7, #-4]!
    311e:	001e      	movs	r6, r3
    3120:	b40f      	push	{r0, r1, r2, r3}
    3122:	f7fd fa0c 	bl	53e <Code_85>
    3126:	bc0f      	pop	{r0, r1, r2, r3}
    3128:	0034      	movs	r4, r6
    312a:	cf40      	ldmia	r7!, {r6}
    312c:	cf40      	ldmia	r7!, {r6}
    312e:	e7e4      	b.n	30fa <number_nachkommastellen+0x6>

00003130 <Dictionary_847>:
    3130:	00003150 	andeq	r3, r0, r0, asr r1
    3134:	2e060000 	cdpcs	0, 0, cr0, cr6, cr0, {0}
    3138:	69676964 	stmdbvs	r7!, {r2, r5, r6, r8, fp, sp, lr}^
    313c:	2e0a0074 	mcrcs	0, 0, r0, cr10, cr4, {3}

0000313e <Code_847>:
    313e:	2e0a      	cmp	r6, #10
    3140:	bf3c      	itt	cc
    3142:	3630      	addcc	r6, #48	; 0x30
    3144:	e003      	bcc.n	314e <Code_847+0x10>
    3146:	2e24      	cmp	r6, #36	; 0x24
    3148:	bf34      	ite	cc
    314a:	3637      	addcc	r6, #55	; 0x37
    314c:	2623      	movcs	r6, #35	; 0x23
    314e:	4770      	bx	lr

00003150 <Dictionary_848>:
    3150:	00003186 	andeq	r3, r0, r6, lsl #3
    3154:	68040000 	stmdavs	r4, {}	; <UNPREDICTABLE>
    3158:	00646c6f 	rsbeq	r6, r4, pc, ror #24

0000315c <Code_848>:
    315c:	0033      	movs	r3, r6
    315e:	cf40      	ldmia	r7!, {r6}
    3160:	4874      	ldr	r0, [pc, #464]	; (3334 <Code_881+0xc>)
    3162:	7801      	ldrb	r1, [r0, #0]
    3164:	293f      	cmp	r1, #63	; 0x3f
    3166:	d20d      	bcs.n	3184 <Code_848+0x28>
    3168:	3101      	adds	r1, #1
    316a:	7001      	strb	r1, [r0, #0]
    316c:	1840      	adds	r0, r0, r1
    316e:	2901      	cmp	r1, #1
    3170:	d007      	beq.n	3182 <Code_848+0x26>
    3172:	3801      	subs	r0, #1
    3174:	7802      	ldrb	r2, [r0, #0]
    3176:	3001      	adds	r0, #1
    3178:	7002      	strb	r2, [r0, #0]
    317a:	3801      	subs	r0, #1
    317c:	3901      	subs	r1, #1
    317e:	2901      	cmp	r1, #1
    3180:	d1f7      	bne.n	3172 <Code_848+0x16>
    3182:	7003      	strb	r3, [r0, #0]
    3184:	4770      	bx	lr

00003186 <Dictionary_850>:
    3186:	000031a6 	andeq	r3, r0, r6, lsr #3
    318a:	68050000 	stmdavs	r5, {}	; <UNPREDICTABLE>
    318e:	3c646c6f 	stclcc	12, cr6, [r4], #-444	; 0xfffffe44

00003192 <Code_850>:
    3192:	0033      	movs	r3, r6
    3194:	cf40      	ldmia	r7!, {r6}
    3196:	4867      	ldr	r0, [pc, #412]	; (3334 <Code_881+0xc>)
    3198:	7801      	ldrb	r1, [r0, #0]
    319a:	293f      	cmp	r1, #63	; 0x3f
    319c:	d202      	bcs.n	31a4 <Code_850+0x12>
    319e:	3101      	adds	r1, #1
    31a0:	7001      	strb	r1, [r0, #0]
    31a2:	5443      	strb	r3, [r0, r1]
    31a4:	4770      	bx	lr

000031a6 <Dictionary_852>:
    31a6:	000031be 			; <UNDEFINED> instruction: 0x000031be
    31aa:	73040000 	movwvc	r0, #16384	; 0x4000
    31ae:	006e6769 	rsbeq	r6, lr, r9, ror #14

000031b2 <Code_852>:
    31b2:	2e00      	cmp	r6, #0
    31b4:	d401      	bmi.n	31ba <Code_852+0x8>
    31b6:	cf40      	ldmia	r7!, {r6}
    31b8:	4770      	bx	lr
    31ba:	262d      	movs	r6, #45	; 0x2d
    31bc:	e7ce      	b.n	315c <Code_848>

000031be <Dictionary_854>:
    31be:	000031d2 	ldrdeq	r3, [r0], -r2
    31c2:	23020000 	movwcs	r0, #8192	; 0x2000
    31c6:	485a003e 	ldmdami	sl, {r1, r2, r3, r4, r5}^

000031c8 <Code_854>:
    31c8:	485a      	ldr	r0, [pc, #360]	; (3334 <Code_881+0xc>)
    31ca:	7806      	ldrb	r6, [r0, #0]
    31cc:	3001      	adds	r0, #1
    31ce:	6038      	str	r0, [r7, #0]
    31d0:	4770      	bx	lr

000031d2 <Dictionary_855>:
    31d2:	000031ea 	andeq	r3, r0, sl, ror #3
    31d6:	66030000 	strvs	r0, [r3], -r0
    31da:	b5105323 	ldrlt	r5, [r0, #-803]	; 0x323

000031dc <Code_855>:
    31dc:	b510      	push	{r4, lr}
    31de:	2420      	movs	r4, #32
    31e0:	f000 f808 	bl	31f4 <Code_856>
    31e4:	3c01      	subs	r4, #1
    31e6:	d1fb      	bne.n	31e0 <Code_855+0x4>
    31e8:	bd10      	pop	{r4, pc}

000031ea <Dictionary_856>:
    31ea:	0000320c 	andeq	r3, r0, ip, lsl #4
    31ee:	66020000 	strvs	r0, [r2], -r0
    31f2:	b5000023 	strlt	r0, [r0, #-35]	; 0x23

000031f4 <Code_856>:
    31f4:	b500      	push	{lr}
    31f6:	f847 6d04 	str.w	r6, [r7, #-4]!
    31fa:	4e4d      	ldr	r6, [pc, #308]	; (3330 <Code_881+0x8>)
    31fc:	6836      	ldr	r6, [r6, #0]
    31fe:	f7fd f8db 	bl	3b8 <Code_47>
    3202:	f7ff ff9c 	bl	313e <Code_847>
    3206:	f7ff ffc4 	bl	3192 <Code_850>
    320a:	bd00      	pop	{pc}

0000320c <Dictionary_858>:
    320c:	00003228 	andeq	r3, r0, r8, lsr #4
    3210:	23020000 	movwcs	r0, #8192	; 0x2000
    3214:	b5000053 	strlt	r0, [r0, #-83]	; 0x53

00003216 <Code_858>:
    3216:	b500      	push	{lr}
    3218:	f000 f80a 	bl	3230 <Code_859>
    321c:	2e00      	cmp	r6, #0
    321e:	d1fb      	bne.n	3218 <Code_858+0x2>
    3220:	6838      	ldr	r0, [r7, #0]
    3222:	2800      	cmp	r0, #0
    3224:	d1f8      	bne.n	3218 <Code_858+0x2>
    3226:	bd00      	pop	{pc}

00003228 <Dictionary_859>:
    3228:	00003254 	andeq	r3, r0, r4, asr r2
    322c:	23010000 	movwcs	r0, #4096	; 0x1000

00003230 <Code_859>:
    3230:	b500      	push	{lr}
    3232:	f847 6d04 	str.w	r6, [r7, #-4]!
    3236:	4e3e      	ldr	r6, [pc, #248]	; (3330 <Code_881+0x8>)
    3238:	6836      	ldr	r6, [r6, #0]
    323a:	f847 6d04 	str.w	r6, [r7, #-4]!
    323e:	2600      	movs	r6, #0
    3240:	f7fd f99c 	bl	57c <Code_94>
    3244:	f7fc ffce 	bl	1e4 <Code_21>
    3248:	cf40      	ldmia	r7!, {r6}
    324a:	f7ff ff78 	bl	313e <Code_847>
    324e:	f7ff ff85 	bl	315c <Code_848>
    3252:	bd00      	pop	{pc}

00003254 <Dictionary_864>:
    3254:	00003266 	andeq	r3, r0, r6, ror #4
    3258:	3c020000 	stccc	0, cr0, [r2], {-0}
    325c:	48350023 	ldmdami	r5!, {r0, r1, r5}

0000325e <Code_864>:
    325e:	4835      	ldr	r0, [pc, #212]	; (3334 <Code_881+0xc>)
    3260:	2100      	movs	r1, #0
    3262:	7001      	strb	r1, [r0, #0]
    3264:	4770      	bx	lr

00003266 <Dictionary_865>:
    3266:	00003278 	andeq	r3, r0, r8, ror r2
    326a:	66020000 	strvs	r0, [r2], -r0
    326e:	f847002e 			; <UNDEFINED> instruction: 0xf847002e

00003270 <Code_865>:
    3270:	f847 6d04 	str.w	r6, [r7, #-4]!
    3274:	2620      	movs	r6, #32
    3276:	e004      	b.n	3282 <Code_868>

00003278 <Dictionary_868>:
    3278:	000032c6 	andeq	r3, r0, r6, asr #5
    327c:	66030000 	strvs	r0, [r3], -r0
    3280:	b5006e2e 	strlt	r6, [r0, #-3630]	; 0xe2e

00003282 <Code_868>:
    3282:	b500      	push	{lr}
    3284:	b410      	push	{r4}
    3286:	0034      	movs	r4, r6
    3288:	cf40      	ldmia	r7!, {r6}
    328a:	f7fd fb0b 	bl	8a4 <Code_131>
    328e:	f7fd f85c 	bl	34a <Code_41>
    3292:	f847 6d04 	str.w	r6, [r7, #-4]!
    3296:	2600      	movs	r6, #0
    3298:	f7ff ffe1 	bl	325e <Code_864>
    329c:	f7ff ffbb 	bl	3216 <Code_858>
    32a0:	cf40      	ldmia	r7!, {r6}
    32a2:	262c      	movs	r6, #44	; 0x2c
    32a4:	f7ff ff75 	bl	3192 <Code_850>
    32a8:	2c00      	cmp	r4, #0
    32aa:	d003      	beq.n	32b4 <Code_868+0x32>
    32ac:	f7ff ffa2 	bl	31f4 <Code_856>
    32b0:	3c01      	subs	r4, #1
    32b2:	d1fb      	bne.n	32ac <Code_868+0x2a>
    32b4:	bc10      	pop	{r4}
    32b6:	cf40      	ldmia	r7!, {r6}
    32b8:	f7ff ff7b 	bl	31b2 <Code_852>
    32bc:	f847 6d04 	str.w	r6, [r7, #-4]!
    32c0:	f847 6d04 	str.w	r6, [r7, #-4]!
    32c4:	e01c      	b.n	3300 <abschluss_zahlenausgabe>

000032c6 <Dictionary_876>:
    32c6:	000032dc 	ldrdeq	r3, [r0], -ip
    32ca:	75030000 	strvc	r0, [r3, #-0]
    32ce:	b5002e64 	strlt	r2, [r0, #-3684]	; 0xe64

000032d0 <Code_876>:
    32d0:	b500      	push	{lr}
    32d2:	f7ff ffc4 	bl	325e <Code_864>
    32d6:	f7ff ff9e 	bl	3216 <Code_858>
    32da:	e011      	b.n	3300 <abschluss_zahlenausgabe>

000032dc <Dictionary_877>:
    32dc:	0000330e 	andeq	r3, r0, lr, lsl #6
    32e0:	64020000 	strvs	r0, [r2], #-0
    32e4:	b500002e 	strlt	r0, [r0, #-46]	; 0x2e

000032e6 <Code_877>:
    32e6:	b500      	push	{lr}
    32e8:	f7fd fadc 	bl	8a4 <Code_131>
    32ec:	f7fd f82d 	bl	34a <Code_41>
    32f0:	f7ff ffb5 	bl	325e <Code_864>
    32f4:	f7ff ff8f 	bl	3216 <Code_858>
    32f8:	f7fd fade 	bl	8b8 <Code_132>
    32fc:	f7ff ff59 	bl	31b2 <Code_852>

00003300 <abschluss_zahlenausgabe>:
    3300:	f7ff ff62 	bl	31c8 <Code_854>
    3304:	f7fe fb2b 	bl	195e <Code_382>
    3308:	f7fe fa7c 	bl	1804 <Code_347>
    330c:	bd00      	pop	{pc}

0000330e <Dictionary_878>:
    330e:	00003320 	andeq	r3, r0, r0, lsr #6
    3312:	75020000 	strvc	r0, [r2, #-0]
    3316:	f847002e 			; <UNDEFINED> instruction: 0xf847002e

00003318 <Code_878>:
    3318:	f847 6d04 	str.w	r6, [r7, #-4]!
    331c:	2600      	movs	r6, #0
    331e:	e7d7      	b.n	32d0 <Code_876>

00003320 <Dictionary_881>:
    3320:	00003338 	andeq	r3, r0, r8, lsr r3
    3324:	2e010000 	cdpcs	0, 0, cr0, cr1, cr0, {0}

00003328 <Code_881>:
    3328:	f847 6d04 	str.w	r6, [r7, #-4]!
    332c:	17f6      	asrs	r6, r6, #31
    332e:	e7da      	b.n	32e6 <Code_877>
    3330:	2001fffc 	strdcs	pc, [r1], -ip
    3334:	20000028 	andcs	r0, r0, r8, lsr #32

00003338 <Dictionary_883>:
    3338:	00003380 	andeq	r3, r0, r0, lsl #7
    333c:	65080000 	strvs	r0, [r8, #-0]
    3340:	756c6176 	strbvc	r6, [ip, #-374]!	; 0x176
    3344:	00657461 	rsbeq	r7, r5, r1, ror #8

00003348 <Code_883>:
    3348:	b500      	push	{lr}
    334a:	f7fe f9f6 	bl	173a <Code_330>
    334e:	cf01      	ldmia	r7!, {r0}
    3350:	b401      	push	{r0}
    3352:	b440      	push	{r6}
    3354:	cf40      	ldmia	r7!, {r6}
    3356:	48d4      	ldr	r0, [pc, #848]	; (36a8 <quit_innenschleife+0x14>)
    3358:	6801      	ldr	r1, [r0, #0]
    335a:	b402      	push	{r1}
    335c:	2100      	movs	r1, #0
    335e:	6001      	str	r1, [r0, #0]
    3360:	f7fe f9de 	bl	1720 <Code_328>
    3364:	f000 f814 	bl	3390 <Code_885>
    3368:	48cf      	ldr	r0, [pc, #828]	; (36a8 <quit_innenschleife+0x14>)
    336a:	bc02      	pop	{r1}
    336c:	6001      	str	r1, [r0, #0]
    336e:	f847 6d04 	str.w	r6, [r7, #-4]!
    3372:	bc40      	pop	{r6}
    3374:	bc01      	pop	{r0}
    3376:	3f04      	subs	r7, #4
    3378:	6038      	str	r0, [r7, #0]
    337a:	f7fe f9d1 	bl	1720 <Code_328>
    337e:	bd00      	pop	{pc}

00003380 <Dictionary_885>:
    3380:	00003644 	andeq	r3, r0, r4, asr #12
    3384:	69090000 	stmdbvs	r9, {}	; <UNPREDICTABLE>
    3388:	7265746e 	rsbvc	r7, r5, #1845493760	; 0x6e000000
    338c:	74657270 	strbtvc	r7, [r5], #-624	; 0x270

00003390 <Code_885>:
    3390:	b530      	push	{r4, r5, lr}
    3392:	48c6      	ldr	r0, [pc, #792]	; (36ac <quit_innenschleife+0x18>)
    3394:	4287      	cmp	r7, r0
    3396:	d90b      	bls.n	33b0 <Code_885+0x20>
    3398:	f7fe fa85 	bl	18a6 <dotgaensefuesschen>
    339c:	61745310 	cmnvs	r4, r0, lsl r3
    33a0:	75206b63 	strvc	r6, [r0, #-2915]!	; 0xb63
    33a4:	7265646e 	rsbvc	r6, r5, #1845493760	; 0x6e000000
    33a8:	776f6c66 	strbvc	r6, [pc, -r6, ror #24]!
    33ac:	e15d000a 	cmp	sp, sl
    33b0:	48bf      	ldr	r0, [pc, #764]	; (36b0 <quit_innenschleife+0x1c>)
    33b2:	4287      	cmp	r7, r0
    33b4:	d20a      	bcs.n	33cc <Code_885+0x3c>
    33b6:	f7fe fa76 	bl	18a6 <dotgaensefuesschen>
    33ba:	6174530f 	cmnvs	r4, pc, lsl #6
    33be:	6f206b63 	svcvs	0x00206b63
    33c2:	66726576 			; <UNDEFINED> instruction: 0x66726576
    33c6:	0a776f6c 	beq	1ddf17e <BIT24+0xddf17e>
    33ca:	e14f      	b.n	366c <Code_940>
    33cc:	4cb9      	ldr	r4, [pc, #740]	; (36b4 <quit_innenschleife+0x20>)
    33ce:	6825      	ldr	r5, [r4, #0]
    33d0:	2d00      	cmp	r5, #0
    33d2:	d101      	bne.n	33d8 <Code_885+0x48>
    33d4:	003d      	movs	r5, r7
    33d6:	6025      	str	r5, [r4, #0]
    33d8:	f7ff fdc2 	bl	2f60 <Code_813>
    33dc:	2e00      	cmp	r6, #0
    33de:	d102      	bne.n	33e6 <Code_885+0x56>
    33e0:	3704      	adds	r7, #4
    33e2:	cf40      	ldmia	r7!, {r6}
    33e4:	bd30      	pop	{r4, r5, pc}
    33e6:	6838      	ldr	r0, [r7, #0]
    33e8:	f847 6d04 	str.w	r6, [r7, #-4]!
    33ec:	3f04      	subs	r7, #4
    33ee:	6038      	str	r0, [r7, #0]
    33f0:	f7ff fa6f 	bl	28d2 <Code_653>
    33f4:	0031      	movs	r1, r6
    33f6:	cf40      	ldmia	r7!, {r6}
    33f8:	0032      	movs	r2, r6
    33fa:	cf40      	ldmia	r7!, {r6}
    33fc:	2a00      	cmp	r2, #0
    33fe:	d113      	bne.n	3428 <not_found_addr_r0_len_r1+0x18>
    3400:	6838      	ldr	r0, [r7, #0]
    3402:	0031      	movs	r1, r6
    3404:	f7ff fe16 	bl	3034 <Code_820>
    3408:	0032      	movs	r2, r6
    340a:	cf40      	ldmia	r7!, {r6}
    340c:	2a00      	cmp	r2, #0
    340e:	d1c0      	bne.n	3392 <Code_885+0x2>

00003410 <not_found_addr_r0_len_r1>:
    3410:	f7fe faa9 	bl	1966 <stype_addr_r0_len_r1>
    3414:	f7fe fa47 	bl	18a6 <dotgaensefuesschen>
    3418:	6f6e200c 	svcvs	0x006e200c
    341c:	6f662074 	svcvs	0x00662074
    3420:	2e646e75 	mcrcs	14, 3, r6, cr4, cr5, {3}
    3424:	e121000a 	teq	r1, sl
    3428:	4ba3      	ldr	r3, [pc, #652]	; (36b8 <quit_innenschleife+0x24>)
    342a:	681b      	ldr	r3, [r3, #0]
    342c:	2b00      	cmp	r3, #0
    342e:	d11d      	bne.n	346c <.ausfuehren+0x12>
    3430:	2500      	movs	r5, #0
    3432:	6025      	str	r5, [r4, #0]
    3434:	2330      	movs	r3, #48	; 0x30
    3436:	400b      	ands	r3, r1
    3438:	2b30      	cmp	r3, #48	; 0x30
    343a:	d10e      	bne.n	345a <.ausfuehren>
    343c:	f7fe fa8f 	bl	195e <Code_382>
    3440:	f7fe fa31 	bl	18a6 <dotgaensefuesschen>
    3444:	73692012 	cmnvc	r9, #18
    3448:	6d6f6320 	stclvs	3, cr6, [pc, #-128]!	; 33d0 <Code_885+0x40>
    344c:	656c6970 	strbvs	r6, [ip, #-2416]!	; 0x970
    3450:	6c6e6f2d 	stclvs	15, cr6, [lr], #-180	; 0xffffff4c
    3454:	000a2e79 	andeq	r2, sl, r9, ror lr
    3458:	e108      	b.n	366c <Code_940>

0000345a <.ausfuehren>:
    345a:	3704      	adds	r7, #4
    345c:	cf40      	ldmia	r7!, {r6}
    345e:	f847 6d04 	str.w	r6, [r7, #-4]!
    3462:	0016      	movs	r6, r2
    3464:	f7fe fdec 	bl	2040 <Code_496>
    3468:	f7ff ff93 	bl	3392 <Code_885+0x2>
    346c:	3704      	adds	r7, #4
    346e:	cf40      	ldmia	r7!, {r6}
    3470:	2080      	movs	r0, #128	; 0x80
    3472:	4008      	ands	r0, r1
    3474:	d10e      	bne.n	3494 <.interpret_faltoptimierung>
    3476:	1beb      	subs	r3, r5, r7
    3478:	089b      	lsrs	r3, r3, #2
    347a:	2040      	movs	r0, #64	; 0x40
    347c:	4008      	ands	r0, r1
    347e:	d00f      	beq.n	34a0 <.konstantenschleife>
    3480:	2008      	movs	r0, #8
    3482:	4008      	ands	r0, r1
    3484:	d002      	beq.n	348c <.interpret_genugkonstanten>
    3486:	2b00      	cmp	r3, #0
    3488:	d000      	beq.n	348c <.interpret_genugkonstanten>
    348a:	e01d      	b.n	34c8 <.interpret_opcodierbar>

0000348c <.interpret_genugkonstanten>:
    348c:	200f      	movs	r0, #15
    348e:	4008      	ands	r0, r1
    3490:	4283      	cmp	r3, r0
    3492:	d305      	bcc.n	34a0 <.konstantenschleife>

00003494 <.interpret_faltoptimierung>:
    3494:	f847 6d04 	str.w	r6, [r7, #-4]!
    3498:	0016      	movs	r6, r2
    349a:	f7fe fdd1 	bl	2040 <Code_496>
    349e:	e778      	b.n	3392 <Code_885+0x2>

000034a0 <.konstantenschleife>:
    34a0:	f000 f8bd 	bl	361e <konstantenschreiben>
    34a4:	f847 6d04 	str.w	r6, [r7, #-4]!
    34a8:	0016      	movs	r6, r2
    34aa:	2210      	movs	r2, #16
    34ac:	400a      	ands	r2, r1
    34ae:	d002      	beq.n	34b6 <.konstantenschleife+0x16>
    34b0:	f7fe fdc6 	bl	2040 <Code_496>
    34b4:	e76d      	b.n	3392 <Code_885+0x2>
    34b6:	2220      	movs	r2, #32
    34b8:	400a      	ands	r2, r1
    34ba:	d002      	beq.n	34c2 <.konstantenschleife+0x22>
    34bc:	f7fe fd22 	bl	1f04 <Code_474>
    34c0:	e767      	b.n	3392 <Code_885+0x2>
    34c2:	f7fe fc48 	bl	1d56 <Code_443>
    34c6:	e764      	b.n	3392 <Code_885+0x2>

000034c8 <.interpret_opcodierbar>:
    34c8:	2007      	movs	r0, #7
    34ca:	4001      	ands	r1, r0
    34cc:	0010      	movs	r0, r2
    34ce:	f7fe fd30 	bl	1f32 <suchedefinitionsende>
    34d2:	2901      	cmp	r1, #1
    34d4:	d11f      	bne.n	3516 <.interpret_opcodierbar_rechenlogik>
    34d6:	2b01      	cmp	r3, #1
    34d8:	d1dc      	bne.n	3494 <.interpret_faltoptimierung>
    34da:	21ff      	movs	r1, #255	; 0xff
    34dc:	4031      	ands	r1, r6
    34de:	42b1      	cmp	r1, r6
    34e0:	d104      	bne.n	34ec <.interpret_opcodierbar+0x24>
    34e2:	8840      	ldrh	r0, [r0, #2]
    34e4:	4306      	orrs	r6, r0
    34e6:	f7fe ff31 	bl	234c <Code_559>
    34ea:	e752      	b.n	3392 <Code_885+0x2>
    34ec:	f7fe fb22 	bl	1b34 <Code_422>
    34f0:	2e00      	cmp	r6, #0
    34f2:	cf40      	ldmia	r7!, {r6}
    34f4:	d004      	beq.n	3500 <.interpret_opcodieren_ueber_r0>
    34f6:	6840      	ldr	r0, [r0, #4]
    34f8:	4306      	orrs	r6, r0
    34fa:	f7fe ff50 	bl	239e <Code_568>
    34fe:	e748      	b.n	3392 <Code_885+0x2>

00003500 <.interpret_opcodieren_ueber_r0>:
    3500:	f847 6d04 	str.w	r6, [r7, #-4]!
    3504:	2600      	movs	r6, #0
    3506:	f7fe fbc9 	bl	1c9c <Code_431>
    350a:	f847 6d04 	str.w	r6, [r7, #-4]!
    350e:	8806      	ldrh	r6, [r0, #0]
    3510:	f7fe ff1c 	bl	234c <Code_559>
    3514:	e73d      	b.n	3392 <Code_885+0x2>

00003516 <.interpret_opcodierbar_rechenlogik>:
    3516:	2902      	cmp	r1, #2
    3518:	d102      	bne.n	3520 <.interpret_opcodierbar_gleichungleich>
    351a:	2b01      	cmp	r3, #1
    351c:	d1ba      	bne.n	3494 <.interpret_faltoptimierung>
    351e:	e7ef      	b.n	3500 <.interpret_opcodieren_ueber_r0>

00003520 <.interpret_opcodierbar_gleichungleich>:
    3520:	2903      	cmp	r1, #3
    3522:	d126      	bne.n	3572 <.interpret_opcodierbar_schieben>
    3524:	2b01      	cmp	r3, #1
    3526:	d1b5      	bne.n	3494 <.interpret_faltoptimierung>
    3528:	21ff      	movs	r1, #255	; 0xff
    352a:	4031      	ands	r1, r6
    352c:	42b1      	cmp	r1, r6
    352e:	d10a      	bne.n	3546 <.interpret_opcodierbar_gleichungleich+0x26>
    3530:	4962      	ldr	r1, [pc, #392]	; (36bc <quit_innenschleife+0x28>)
    3532:	430e      	orrs	r6, r1
    3534:	f7fe ff0a 	bl	234c <Code_559>
    3538:	3204      	adds	r2, #4
    353a:	f847 6d04 	str.w	r6, [r7, #-4]!
    353e:	0016      	movs	r6, r2
    3540:	f7fe fce0 	bl	1f04 <Code_474>
    3544:	e725      	b.n	3392 <Code_885+0x2>
    3546:	f7fe faf5 	bl	1b34 <Code_422>
    354a:	2e00      	cmp	r6, #0
    354c:	cf40      	ldmia	r7!, {r6}
    354e:	d004      	beq.n	355a <.interpret_opcodierbar_gleichungleich+0x3a>
    3550:	495b      	ldr	r1, [pc, #364]	; (36c0 <quit_innenschleife+0x2c>)
    3552:	430e      	orrs	r6, r1
    3554:	f7fe ff23 	bl	239e <Code_568>
    3558:	e7ee      	b.n	3538 <.interpret_opcodierbar_gleichungleich+0x18>
    355a:	f847 6d04 	str.w	r6, [r7, #-4]!
    355e:	2600      	movs	r6, #0
    3560:	f7fe fb9c 	bl	1c9c <Code_431>
    3564:	3202      	adds	r2, #2
    3566:	f847 6d04 	str.w	r6, [r7, #-4]!
    356a:	0016      	movs	r6, r2
    356c:	f7fe fcca 	bl	1f04 <Code_474>
    3570:	e70f      	b.n	3392 <Code_885+0x2>

00003572 <.interpret_opcodierbar_schieben>:
    3572:	2904      	cmp	r1, #4
    3574:	d118      	bne.n	35a8 <.interpret_opcodierbar_speicherschreiben>
    3576:	2b01      	cmp	r3, #1
    3578:	d18c      	bne.n	3494 <.interpret_faltoptimierung>
    357a:	0033      	movs	r3, r6
    357c:	cf40      	ldmia	r7!, {r6}
    357e:	2b00      	cmp	r3, #0
    3580:	d100      	bne.n	3584 <.interpret_opcodierbar_schieben+0x12>
    3582:	e706      	b.n	3392 <Code_885+0x2>
    3584:	221f      	movs	r2, #31
    3586:	401a      	ands	r2, r3
    3588:	429a      	cmp	r2, r3
    358a:	d005      	beq.n	3598 <.interpret_opcodierbar_schieben+0x26>
    358c:	f847 6d04 	str.w	r6, [r7, #-4]!
    3590:	8846      	ldrh	r6, [r0, #2]
    3592:	f7fe fedb 	bl	234c <Code_559>
    3596:	e6fc      	b.n	3392 <Code_885+0x2>
    3598:	f847 6d04 	str.w	r6, [r7, #-4]!
    359c:	8806      	ldrh	r6, [r0, #0]
    359e:	019b      	lsls	r3, r3, #6
    35a0:	431e      	orrs	r6, r3
    35a2:	f7fe fed3 	bl	234c <Code_559>
    35a6:	e6f4      	b.n	3392 <Code_885+0x2>

000035a8 <.interpret_opcodierbar_speicherschreiben>:
    35a8:	2905      	cmp	r1, #5
    35aa:	d124      	bne.n	35f6 <.interpret_opcodierbar_andere>
    35ac:	2b01      	cmp	r3, #1
    35ae:	d110      	bne.n	35d2 <.interpret_opcodierbar_speicherschreiben+0x2a>
    35b0:	f847 6d04 	str.w	r6, [r7, #-4]!
    35b4:	2600      	movs	r6, #0
    35b6:	f7fe fb71 	bl	1c9c <Code_431>
    35ba:	f847 6d04 	str.w	r6, [r7, #-4]!
    35be:	0006      	movs	r6, r0
    35c0:	f7fe fca0 	bl	1f04 <Code_474>
    35c4:	f847 6d04 	str.w	r6, [r7, #-4]!
    35c8:	f64c 7640 	movw	r6, #53056	; 0xcf40
    35cc:	f7fe febe 	bl	234c <Code_559>
    35d0:	e6df      	b.n	3392 <Code_885+0x2>
    35d2:	f847 6d04 	str.w	r6, [r7, #-4]!
    35d6:	2600      	movs	r6, #0
    35d8:	f7fe fb60 	bl	1c9c <Code_431>
    35dc:	f847 6d04 	str.w	r6, [r7, #-4]!
    35e0:	2601      	movs	r6, #1
    35e2:	f7fe fb5b 	bl	1c9c <Code_431>
    35e6:	f7fe fca4 	bl	1f32 <suchedefinitionsende>
    35ea:	f847 6d04 	str.w	r6, [r7, #-4]!
    35ee:	0006      	movs	r6, r0
    35f0:	f7fe fc88 	bl	1f04 <Code_474>
    35f4:	e6cd      	b.n	3392 <Code_885+0x2>

000035f6 <.interpret_opcodierbar_andere>:
    35f6:	2906      	cmp	r1, #6
    35f8:	d10e      	bne.n	3618 <.interpret_opcodierbar_andere+0x22>
    35fa:	2b01      	cmp	r3, #1
    35fc:	f47f af4a 	bne.w	3494 <.interpret_faltoptimierung>
    3600:	f7fe fa98 	bl	1b34 <Code_422>
    3604:	2e00      	cmp	r6, #0
    3606:	cf40      	ldmia	r7!, {r6}
    3608:	f43f af7a 	beq.w	3500 <.interpret_opcodieren_ueber_r0>
    360c:	f8d0 0002 	ldr.w	r0, [r0, #2]
    3610:	4306      	orrs	r6, r0
    3612:	f7fe fec4 	bl	239e <Code_568>
    3616:	e6bc      	b.n	3392 <Code_885+0x2>
    3618:	3001      	adds	r0, #1
    361a:	4780      	blx	r0
    361c:	e6b9      	b.n	3392 <Code_885+0x2>

0000361e <konstantenschreiben>:
    361e:	b500      	push	{lr}
    3620:	2b00      	cmp	r3, #0
    3622:	d00c      	beq.n	363e <.konstanteninnenschleife+0x1a>

00003624 <.konstanteninnenschleife>:
    3624:	3b01      	subs	r3, #1
    3626:	f847 6d04 	str.w	r6, [r7, #-4]!
    362a:	001e      	movs	r6, r3
    362c:	f857 6026 	ldr.w	r6, [r7, r6, lsl #2]
    3630:	f7fe fbc6 	bl	1dc0 <Code_448>
    3634:	2b00      	cmp	r3, #0
    3636:	d1f5      	bne.n	3624 <.konstanteninnenschleife>
    3638:	3d04      	subs	r5, #4
    363a:	002f      	movs	r7, r5
    363c:	cf40      	ldmia	r7!, {r6}
    363e:	2500      	movs	r5, #0
    3640:	6025      	str	r5, [r4, #0]
    3642:	bd00      	pop	{pc}

00003644 <Dictionary_937>:
    3644:	00003660 	andeq	r3, r0, r0, ror #12
    3648:	68090081 	stmdavs	r9, {r0, r7}
    364c:	2d6b6f6f 	stclcs	15, cr6, [fp, #-444]!	; 0xfffffe44
    3650:	74697571 	strbtvc	r7, [r9], #-1393	; 0x571

00003654 <Code_937>:
    3654:	f847 6d04 	str.w	r6, [r7, #-4]!
    3658:	4e1a      	ldr	r6, [pc, #104]	; (36c4 <quit_innenschleife+0x30>)
    365a:	4770      	bx	lr
    365c:	00003694 	muleq	r0, r4, r6

00003660 <Dictionary_940>:
    3660:	000036d8 	ldrdeq	r3, [r0], -r8
    3664:	71040000 	mrsvc	r0, (UNDEF: 4)
    3668:	00746975 	rsbseq	r6, r4, r5, ror r9

0000366c <Code_940>:
    366c:	f8df d058 	ldr.w	sp, [pc, #88]	; 36c8 <quit_innenschleife+0x34>
    3670:	4f0e      	ldr	r7, [pc, #56]	; (36ac <quit_innenschleife+0x18>)
    3672:	4816      	ldr	r0, [pc, #88]	; (36cc <quit_innenschleife+0x38>)
    3674:	210a      	movs	r1, #10
    3676:	6001      	str	r1, [r0, #0]
    3678:	480f      	ldr	r0, [pc, #60]	; (36b8 <quit_innenschleife+0x24>)
    367a:	2100      	movs	r1, #0
    367c:	6001      	str	r1, [r0, #0]
    367e:	480d      	ldr	r0, [pc, #52]	; (36b4 <quit_innenschleife+0x20>)
    3680:	6001      	str	r1, [r0, #0]
    3682:	4809      	ldr	r0, [pc, #36]	; (36a8 <quit_innenschleife+0x14>)
    3684:	6001      	str	r1, [r0, #0]
    3686:	4812      	ldr	r0, [pc, #72]	; (36d0 <quit_innenschleife+0x3c>)
    3688:	6001      	str	r1, [r0, #0]
    368a:	4912      	ldr	r1, [pc, #72]	; (36d4 <quit_innenschleife+0x40>)
    368c:	6041      	str	r1, [r0, #4]

0000368e <quit_intern>:
    368e:	480d      	ldr	r0, [pc, #52]	; (36c4 <quit_innenschleife+0x30>)
    3690:	6800      	ldr	r0, [r0, #0]
    3692:	4687      	mov	pc, r0

00003694 <quit_innenschleife>:
    3694:	f7fe f85f 	bl	1756 <Code_332>
    3698:	f7ff fe7a 	bl	3390 <Code_885>
    369c:	f7fe f903 	bl	18a6 <dotgaensefuesschen>
    36a0:	6b6f2005 	blvs	1bcb6bc <BIT24+0xbcb6bc>
    36a4:	e7f50a2e 	ldrb	r0, [r5, lr, lsr #20]!
    36a8:	2001ffe4 	andcs	pc, r1, r4, ror #31
    36ac:	20000230 	andcs	r0, r0, r0, lsr r2
    36b0:	20000130 	andcs	r0, r0, r0, lsr r1
    36b4:	20000008 	andcs	r0, r0, r8
    36b8:	2001ffd8 	ldrdcs	pc, [r1], -r8
    36bc:	00003e00 	andeq	r3, r0, r0, lsl #28
    36c0:	f1b60600 			; <UNDEFINED> instruction: 0xf1b60600
    36c4:	2001ffd4 	ldrdcs	pc, [r1], -r4
    36c8:	20000330 	andcs	r0, r0, r0, lsr r3
    36cc:	2001fffc 	strdcs	pc, [r1], -ip
    36d0:	2001ffdc 	ldrdcs	pc, [r1], -ip
    36d4:	20000068 	andcs	r0, r0, r8, rrx

000036d8 <Dictionary_942>:
    36d8:	000036f2 	strdeq	r3, [r0], -r2
    36dc:	65050000 	strvs	r0, [r5, #-0]
    36e0:	3f746e69 	svccc	0x00746e69

000036e4 <Code_942>:
    36e4:	f847 6d04 	str.w	r6, [r7, #-4]!
    36e8:	f3ef 8610 	mrs	r6, PRIMASK
    36ec:	3e01      	subs	r6, #1
    36ee:	41b6      	sbcs	r6, r6
    36f0:	4770      	bx	lr

000036f2 <Dictionary_944>:
    36f2:	00003702 	andeq	r3, r0, r2, lsl #14
    36f6:	65040020 	strvs	r0, [r4, #-32]
    36fa:	00746e69 	rsbseq	r6, r4, r9, ror #28

000036fe <Code_944>:
    36fe:	b662      	cpsie	i
    3700:	4770      	bx	lr

00003702 <Dictionary_945>:
    3702:	00003712 	andeq	r3, r0, r2, lsl r7
    3706:	64040020 	strvs	r0, [r4], #-32
    370a:	00746e69 	rsbseq	r6, r4, r9, ror #28

0000370e <Code_945>:
    370e:	b672      	cpsid	i
    3710:	4770      	bx	lr

00003712 <Dictionary_946>:
    3712:	00003728 	andeq	r3, r0, r8, lsr #14
    3716:	69040020 	stmdbvs	r4, {r5}
    371a:	00727370 	rsbseq	r7, r2, r0, ror r3

0000371e <Code_946>:
    371e:	f847 6d04 	str.w	r6, [r7, #-4]!
    3722:	f3ef 8605 	mrs	r6, IPSR
    3726:	4770      	bx	lr

00003728 <Dictionary_948>:
    3728:	00003734 	andeq	r3, r0, r4, lsr r7
    372c:	6e030000 	cdpvs	0, 0, cr0, cr3, cr0, {0}
    3730:	4770706f 	ldrbmi	r7, [r0, -pc, rrx]!

00003732 <Code_948>:
    3732:	4770      	bx	lr

00003734 <Dictionary_949>:
    3734:	00003776 	andeq	r3, r0, r6, ror r7
    3738:	75090000 	strvc	r0, [r9, #-0]
    373c:	6e61686e 	cdpvs	8, 6, cr6, cr1, cr14, {3}
    3740:	64656c64 	strbtvs	r6, [r5], #-3172	; 0xc64

00003744 <Code_949>:
    3744:	b500      	push	{lr}
    3746:	f7fe f8ae 	bl	18a6 <dotgaensefuesschen>
    374a:	686e5514 	stmdavs	lr!, {r2, r4, r8, sl, ip, lr}^
    374e:	6c646e61 	stclvs	14, cr6, [r4], #-388	; 0xfffffe7c
    3752:	49206465 	stmdbmi	r0!, {r0, r2, r5, r6, sl, sp, lr}
    3756:	7265746e 	rsbvc	r7, r5, #1845493760	; 0x6e000000
    375a:	74707572 	ldrbtvc	r7, [r0], #-1394	; 0x572
    375e:	f8470020 			; <UNDEFINED> instruction: 0xf8470020
    3762:	6d04      	ldr	r4, [r0, #80]	; 0x50
    3764:	f3ef 8605 	mrs	r6, IPSR
    3768:	f7fe f910 	bl	198c <Code_386>
    376c:	f7fe f89b 	bl	18a6 <dotgaensefuesschen>
    3770:	000a2102 	andeq	r2, sl, r2, lsl #2
    3774:	bd00      	pop	{pc}

00003776 <Dictionary_953>:
    3776:	00003788 	andeq	r3, r0, r8, lsl #15
    377a:	72050000 	andvc	r0, r5, #0
    377e:	74657365 	strbtvc	r7, [r5], #-869	; 0x365

00003782 <Code_953>:
    3782:	48c4      	ldr	r0, [pc, #784]	; (3a94 <init_name+0x6>)
    3784:	49c4      	ldr	r1, [pc, #784]	; (3a98 <init_name+0xa>)
    3786:	6001      	str	r1, [r0, #0]

00003788 <Dictionary_955>:
    3788:	000037b2 			; <UNDEFINED> instruction: 0x000037b2
    378c:	690b0081 	stmdbvs	fp, {r0, r7}
    3790:	732d7172 	teqvc	sp, #-2147483620	; 0x8000001c
    3794:	69747379 	ldmdbvs	r4!, {r0, r3, r4, r5, r6, r8, r9, ip, sp, lr}^
    3798:	f8476b63 			; <UNDEFINED> instruction: 0xf8476b63

0000379a <Code_955>:
    379a:	f847 6d04 	str.w	r6, [r7, #-4]!
    379e:	4ebf      	ldr	r6, [pc, #764]	; (3a9c <init_name+0xe>)
    37a0:	4770      	bx	lr
    37a2:	00003744 	andeq	r3, r0, r4, asr #14

000037a6 <irq_vektor_systick>:
    37a6:	f64f 70d0 	movw	r0, #65488	; 0xffd0
    37aa:	f2c2 0001 	movt	r0, #8193	; 0x2001
    37ae:	6800      	ldr	r0, [r0, #0]
    37b0:	4687      	mov	pc, r0

000037b2 <Dictionary_959>:
    37b2:	000037da 	ldrdeq	r3, [r0], -sl
    37b6:	69090081 	stmdbvs	r9, {r0, r7}
    37ba:	662d7172 			; <UNDEFINED> instruction: 0x662d7172
    37be:	746c7561 	strbtvc	r7, [ip], #-1377	; 0x561

000037c2 <Code_959>:
    37c2:	f847 6d04 	str.w	r6, [r7, #-4]!
    37c6:	4eb6      	ldr	r6, [pc, #728]	; (3aa0 <init_name+0x12>)
    37c8:	4770      	bx	lr
    37ca:	00003744 	andeq	r3, r0, r4, asr #14

000037ce <faulthandler>:
    37ce:	f64f 70cc 	movw	r0, #65484	; 0xffcc
    37d2:	f2c2 0001 	movt	r0, #8193	; 0x2001
    37d6:	6800      	ldr	r0, [r0, #0]
    37d8:	4687      	mov	pc, r0

000037da <Dictionary_963>:
    37da:	00003808 	andeq	r3, r0, r8, lsl #16
    37de:	690e0081 	stmdbvs	lr, {r0, r7}
    37e2:	632d7172 	teqvs	sp, #-2147483620	; 0x8000001c
    37e6:	656c6c6f 	strbvs	r6, [ip, #-3183]!	; 0xc6f
    37ea:	6f697463 	svcvs	0x00697463
    37ee:	f847006e 			; <UNDEFINED> instruction: 0xf847006e

000037f0 <Code_963>:
    37f0:	f847 6d04 	str.w	r6, [r7, #-4]!
    37f4:	4eab      	ldr	r6, [pc, #684]	; (3aa4 <init_name+0x16>)
    37f6:	4770      	bx	lr
    37f8:	00003744 	andeq	r3, r0, r4, asr #14

000037fc <nullhandler>:
    37fc:	f64f 70c8 	movw	r0, #65480	; 0xffc8
    3800:	f2c2 0001 	movt	r0, #8193	; 0x2001
    3804:	6800      	ldr	r0, [r0, #0]
    3806:	4687      	mov	pc, r0

00003808 <Dictionary_967>:
    3808:	00003830 	andeq	r3, r0, r0, lsr r8
    380c:	69090081 	stmdbvs	r9, {r0, r7}
    3810:	652d7172 	strvs	r7, [sp, #-370]!	; 0x172
    3814:	30697478 	rsbcc	r7, r9, r8, ror r4

00003818 <Code_967>:
    3818:	f847 6d04 	str.w	r6, [r7, #-4]!
    381c:	4ea2      	ldr	r6, [pc, #648]	; (3aa8 <init_name+0x1a>)
    381e:	4770      	bx	lr
    3820:	00003744 	andeq	r3, r0, r4, asr #14

00003824 <irq_vektor_exti0>:
    3824:	f64f 70c4 	movw	r0, #65476	; 0xffc4
    3828:	f2c2 0001 	movt	r0, #8193	; 0x2001
    382c:	6800      	ldr	r0, [r0, #0]
    382e:	4687      	mov	pc, r0

00003830 <Dictionary_971>:
    3830:	00003858 	andeq	r3, r0, r8, asr r8
    3834:	69090081 	stmdbvs	r9, {r0, r7}
    3838:	652d7172 	strvs	r7, [sp, #-370]!	; 0x172
    383c:	31697478 	smccc	38728	; 0x9748

00003840 <Code_971>:
    3840:	f847 6d04 	str.w	r6, [r7, #-4]!
    3844:	4e99      	ldr	r6, [pc, #612]	; (3aac <init_name+0x1e>)
    3846:	4770      	bx	lr
    3848:	00003744 	andeq	r3, r0, r4, asr #14

0000384c <irq_vektor_exti1>:
    384c:	f64f 70c0 	movw	r0, #65472	; 0xffc0
    3850:	f2c2 0001 	movt	r0, #8193	; 0x2001
    3854:	6800      	ldr	r0, [r0, #0]
    3856:	4687      	mov	pc, r0

00003858 <Dictionary_975>:
    3858:	00003880 	andeq	r3, r0, r0, lsl #17
    385c:	69090081 	stmdbvs	r9, {r0, r7}
    3860:	652d7172 	strvs	r7, [sp, #-370]!	; 0x172
    3864:	32697478 	rsbcc	r7, r9, #120, 8	; 0x78000000

00003868 <Code_975>:
    3868:	f847 6d04 	str.w	r6, [r7, #-4]!
    386c:	4e90      	ldr	r6, [pc, #576]	; (3ab0 <init_name+0x22>)
    386e:	4770      	bx	lr
    3870:	00003744 	andeq	r3, r0, r4, asr #14

00003874 <irq_vektor_exti2>:
    3874:	f64f 70bc 	movw	r0, #65468	; 0xffbc
    3878:	f2c2 0001 	movt	r0, #8193	; 0x2001
    387c:	6800      	ldr	r0, [r0, #0]
    387e:	4687      	mov	pc, r0

00003880 <Dictionary_979>:
    3880:	000038a8 	andeq	r3, r0, r8, lsr #17
    3884:	69090081 	stmdbvs	r9, {r0, r7}
    3888:	652d7172 	strvs	r7, [sp, #-370]!	; 0x172
    388c:	33697478 	cmncc	r9, #120, 8	; 0x78000000

00003890 <Code_979>:
    3890:	f847 6d04 	str.w	r6, [r7, #-4]!
    3894:	4e87      	ldr	r6, [pc, #540]	; (3ab4 <init_name+0x26>)
    3896:	4770      	bx	lr
    3898:	00003744 	andeq	r3, r0, r4, asr #14

0000389c <irq_vektor_exti3>:
    389c:	f64f 70b8 	movw	r0, #65464	; 0xffb8
    38a0:	f2c2 0001 	movt	r0, #8193	; 0x2001
    38a4:	6800      	ldr	r0, [r0, #0]
    38a6:	4687      	mov	pc, r0

000038a8 <Dictionary_983>:
    38a8:	000038d0 	ldrdeq	r3, [r0], -r0
    38ac:	69090081 	stmdbvs	r9, {r0, r7}
    38b0:	652d7172 	strvs	r7, [sp, #-370]!	; 0x172
    38b4:	34697478 	strbtcc	r7, [r9], #-1144	; 0x478

000038b8 <Code_983>:
    38b8:	f847 6d04 	str.w	r6, [r7, #-4]!
    38bc:	4e7e      	ldr	r6, [pc, #504]	; (3ab8 <init_name+0x2a>)
    38be:	4770      	bx	lr
    38c0:	00003744 	andeq	r3, r0, r4, asr #14

000038c4 <irq_vektor_exti4>:
    38c4:	f64f 70b4 	movw	r0, #65460	; 0xffb4
    38c8:	f2c2 0001 	movt	r0, #8193	; 0x2001
    38cc:	6800      	ldr	r0, [r0, #0]
    38ce:	4687      	mov	pc, r0

000038d0 <Dictionary_987>:
    38d0:	000038f6 	strdeq	r3, [r0], -r6
    38d4:	69070081 	stmdbvs	r7, {r0, r7}
    38d8:	612d7172 	teqvs	sp, r2, ror r1
    38dc:	f8476364 			; <UNDEFINED> instruction: 0xf8476364

000038de <Code_987>:
    38de:	f847 6d04 	str.w	r6, [r7, #-4]!
    38e2:	4e76      	ldr	r6, [pc, #472]	; (3abc <init_name+0x2e>)
    38e4:	4770      	bx	lr
    38e6:	00003744 	andeq	r3, r0, r4, asr #14

000038ea <irq_vektor_adc>:
    38ea:	f64f 70b0 	movw	r0, #65456	; 0xffb0
    38ee:	f2c2 0001 	movt	r0, #8193	; 0x2001
    38f2:	6800      	ldr	r0, [r0, #0]
    38f4:	4687      	mov	pc, r0

000038f6 <Dictionary_991>:
    38f6:	0000391e 	andeq	r3, r0, lr, lsl r9
    38fa:	69080081 	stmdbvs	r8, {r0, r7}
    38fe:	742d7172 	strtvc	r7, [sp], #-370	; 0x172
    3902:	00326d69 	eorseq	r6, r2, r9, ror #26

00003906 <Code_991>:
    3906:	f847 6d04 	str.w	r6, [r7, #-4]!
    390a:	4e6d      	ldr	r6, [pc, #436]	; (3ac0 <init_name+0x32>)
    390c:	4770      	bx	lr
    390e:	00003744 	andeq	r3, r0, r4, asr #14

00003912 <irq_vektor_tim2>:
    3912:	f64f 70ac 	movw	r0, #65452	; 0xffac
    3916:	f2c2 0001 	movt	r0, #8193	; 0x2001
    391a:	6800      	ldr	r0, [r0, #0]
    391c:	4687      	mov	pc, r0

0000391e <Dictionary_995>:
    391e:	00003946 	andeq	r3, r0, r6, asr #18
    3922:	69080081 	stmdbvs	r8, {r0, r7}
    3926:	742d7172 	strtvc	r7, [sp], #-370	; 0x172
    392a:	00336d69 	eorseq	r6, r3, r9, ror #26

0000392e <Code_995>:
    392e:	f847 6d04 	str.w	r6, [r7, #-4]!
    3932:	4e64      	ldr	r6, [pc, #400]	; (3ac4 <init_name+0x36>)
    3934:	4770      	bx	lr
    3936:	00003744 	andeq	r3, r0, r4, asr #14

0000393a <irq_vektor_tim3>:
    393a:	f64f 70a8 	movw	r0, #65448	; 0xffa8
    393e:	f2c2 0001 	movt	r0, #8193	; 0x2001
    3942:	6800      	ldr	r0, [r0, #0]
    3944:	4687      	mov	pc, r0

00003946 <Dictionary_999>:
    3946:	0000396e 	andeq	r3, r0, lr, ror #18
    394a:	69080081 	stmdbvs	r8, {r0, r7}
    394e:	742d7172 	strtvc	r7, [sp], #-370	; 0x172
    3952:	00346d69 	eorseq	r6, r4, r9, ror #26

00003956 <Code_999>:
    3956:	f847 6d04 	str.w	r6, [r7, #-4]!
    395a:	4e5b      	ldr	r6, [pc, #364]	; (3ac8 <init_name+0x3a>)
    395c:	4770      	bx	lr
    395e:	00003744 	andeq	r3, r0, r4, asr #14

00003962 <irq_vektor_tim4>:
    3962:	f64f 70a4 	movw	r0, #65444	; 0xffa4
    3966:	f2c2 0001 	movt	r0, #8193	; 0x2001
    396a:	6800      	ldr	r0, [r0, #0]
    396c:	4687      	mov	pc, r0

0000396e <Dictionary_1002>:
    396e:	00004000 	andeq	r4, r0, r0
    3972:	2d18ffff 	ldccs	15, cr15, [r8, #-1020]	; 0xfffffc04
    3976:	46202d2d 	strtmi	r2, [r0], -sp, lsr #26
    397a:	6873616c 	ldmdavs	r3!, {r2, r3, r5, r6, r8, sp, lr}^
    397e:	63694420 	cmnvs	r9, #32, 8	; 0x20000000
    3982:	6e6f6974 	mcrvs	9, 3, r6, cr15, cr4, {3}
    3986:	20797261 	rsbscs	r7, r9, r1, ror #4
    398a:	002d2d2d 	eoreq	r2, sp, sp, lsr #26

0000398e <Code_1002>:
    398e:	f7fd fe1f 	bl	15d0 <uart_init>

00003992 <Restart>:
    3992:	484e      	ldr	r0, [pc, #312]	; (3acc <init_name+0x3e>)
    3994:	4685      	mov	sp, r0
    3996:	4f4e      	ldr	r7, [pc, #312]	; (3ad0 <init_name+0x42>)
    3998:	262a      	movs	r6, #42	; 0x2a
    399a:	484e      	ldr	r0, [pc, #312]	; (3ad4 <init_name+0x46>)
    399c:	494b      	ldr	r1, [pc, #300]	; (3acc <init_name+0x3e>)
    399e:	6001      	str	r1, [r0, #0]
    39a0:	484d      	ldr	r0, [pc, #308]	; (3ad8 <init_name+0x4a>)
    39a2:	494e      	ldr	r1, [pc, #312]	; (3adc <init_name+0x4e>)
    39a4:	6001      	str	r1, [r0, #0]
    39a6:	f847 6d04 	str.w	r6, [r7, #-4]!
    39aa:	4e4c      	ldr	r6, [pc, #304]	; (3adc <init_name+0x4e>)
    39ac:	4d4c      	ldr	r5, [pc, #304]	; (3ae0 <init_name+0x52>)

000039ae <SucheFlashPointer_Hangelschleife>:
    39ae:	88b1      	ldrh	r1, [r6, #4]
    39b0:	4b4c      	ldr	r3, [pc, #304]	; (3ae4 <init_name+0x56>)
    39b2:	4299      	cmp	r1, r3
    39b4:	d024      	beq.n	3a00 <Sucheflashpointer_Speicherbelegung_fertig>
    39b6:	4b4c      	ldr	r3, [pc, #304]	; (3ae8 <init_name+0x5a>)
    39b8:	400b      	ands	r3, r1
    39ba:	d00a      	beq.n	39d2 <SucheFlashPointer_Hangelschleife+0x24>
    39bc:	1db0      	adds	r0, r6, #6
    39be:	f7fe ff79 	bl	28b4 <skipstring>
    39c2:	f7fe fab6 	bl	1f32 <suchedefinitionsende>
    39c6:	8803      	ldrh	r3, [r0, #0]
    39c8:	8840      	ldrh	r0, [r0, #2]
    39ca:	0400      	lsls	r0, r0, #16
    39cc:	4303      	orrs	r3, r0
    39ce:	1aed      	subs	r5, r5, r3
    39d0:	e016      	b.n	3a00 <Sucheflashpointer_Speicherbelegung_fertig>
    39d2:	2380      	movs	r3, #128	; 0x80
    39d4:	400b      	ands	r3, r1
    39d6:	d013      	beq.n	3a00 <Sucheflashpointer_Speicherbelegung_fertig>
    39d8:	230f      	movs	r3, #15
    39da:	4019      	ands	r1, r3
    39dc:	0089      	lsls	r1, r1, #2
    39de:	1a6d      	subs	r5, r5, r1
    39e0:	1db0      	adds	r0, r6, #6
    39e2:	f7fe ff67 	bl	28b4 <skipstring>
    39e6:	f7fe faa4 	bl	1f32 <suchedefinitionsende>
    39ea:	f847 6d04 	str.w	r6, [r7, #-4]!
    39ee:	0006      	movs	r6, r0
    39f0:	f847 6d04 	str.w	r6, [r7, #-4]!
    39f4:	002e      	movs	r6, r5
    39f6:	f847 6d04 	str.w	r6, [r7, #-4]!
    39fa:	000e      	movs	r6, r1
    39fc:	f7fd f908 	bl	c10 <Code_180>

00003a00 <Sucheflashpointer_Speicherbelegung_fertig>:
    3a00:	f7fe ff36 	bl	2870 <Code_648>
    3a04:	0030      	movs	r0, r6
    3a06:	cf40      	ldmia	r7!, {r6}
    3a08:	d0d1      	beq.n	39ae <SucheFlashPointer_Hangelschleife>
    3a0a:	4838      	ldr	r0, [pc, #224]	; (3aec <init_name+0x5e>)
    3a0c:	6006      	str	r6, [r0, #0]
    3a0e:	cf40      	ldmia	r7!, {r6}
    3a10:	4837      	ldr	r0, [pc, #220]	; (3af0 <init_name+0x62>)
    3a12:	6005      	str	r5, [r0, #0]
    3a14:	4837      	ldr	r0, [pc, #220]	; (3af4 <init_name+0x66>)
    3a16:	4938      	ldr	r1, [pc, #224]	; (3af8 <init_name+0x6a>)
    3a18:	4a32      	ldr	r2, [pc, #200]	; (3ae4 <init_name+0x56>)
    3a1a:	4288      	cmp	r0, r1
    3a1c:	d004      	beq.n	3a28 <Sucheflashpointer_Speicherbelegung_fertig+0x28>
    3a1e:	3802      	subs	r0, #2
    3a20:	8803      	ldrh	r3, [r0, #0]
    3a22:	4293      	cmp	r3, r2
    3a24:	d0f9      	beq.n	3a1a <Sucheflashpointer_Speicherbelegung_fertig+0x1a>
    3a26:	3002      	adds	r0, #2
    3a28:	4934      	ldr	r1, [pc, #208]	; (3afc <init_name+0x6e>)
    3a2a:	6008      	str	r0, [r1, #0]
    3a2c:	f7fd ff3b 	bl	18a6 <dotgaensefuesschen>
    3a30:	63654d37 	cmnvs	r5, #3520	; 0xdc0
    3a34:	70736972 	rsbsvc	r6, r3, r2, ror r9
    3a38:	6574532d 	ldrbvs	r5, [r4, #-813]!	; 0x32d
    3a3c:	72616c6c 	rsbvc	r6, r1, #108, 24	; 0x6c00
    3a40:	32207369 	eorcc	r7, r0, #-1543503871	; 0xa4000001
    3a44:	302e312e 	eorcc	r3, lr, lr, lsr #2
    3a48:	726f6620 	rsbvc	r6, pc, #32, 12	; 0x2000000
    3a4c:	4d545320 	ldclmi	3, cr5, [r4, #-128]	; 0xffffff80
    3a50:	34463233 	strbcc	r3, [r6], #-563	; 0x233
    3a54:	62203131 	eorvs	r3, r0, #1073741836	; 0x4000000c
    3a58:	614d2079 	hvcvs	53769	; 0xd209
    3a5c:	69687474 	stmdbvs	r8!, {r2, r4, r5, r6, sl, ip, sp, lr}^
    3a60:	4b207361 	blmi	8207ec <BIT23+0x207ec>
    3a64:	0a68636f 	beq	1a1c828 <BIT24+0xa1c828>
    3a68:	4825      	ldr	r0, [pc, #148]	; (3b00 <init_name+0x72>)
    3a6a:	2100      	movs	r1, #0
    3a6c:	6001      	str	r1, [r0, #0]
    3a6e:	f847 6d04 	str.w	r6, [r7, #-4]!
    3a72:	4e24      	ldr	r6, [pc, #144]	; (3b04 <init_name+0x76>)
    3a74:	f847 6d04 	str.w	r6, [r7, #-4]!
    3a78:	2604      	movs	r6, #4
    3a7a:	f7fe ff2a 	bl	28d2 <Code_653>
    3a7e:	cf40      	ldmia	r7!, {r6}
    3a80:	2e00      	cmp	r6, #0
    3a82:	d002      	beq.n	3a8a <Sucheflashpointer_Speicherbelegung_fertig+0x8a>
    3a84:	f7fe fadc 	bl	2040 <Code_496>
    3a88:	e601      	b.n	368e <quit_intern>
    3a8a:	cf40      	ldmia	r7!, {r6}
    3a8c:	e5ee      	b.n	366c <Code_940>

00003a8e <init_name>:
    3a8e:	74696e69 	strbtvc	r6, [r9], #-3689	; 0xe69
    3a92:	ed0c0000 	stc	0, cr0, [ip, #-0]
    3a96:	0004e000 	andeq	lr, r4, r0
    3a9a:	ffd005fa 			; <UNDEFINED> instruction: 0xffd005fa
    3a9e:	ffcc2001 			; <UNDEFINED> instruction: 0xffcc2001
    3aa2:	ffc82001 			; <UNDEFINED> instruction: 0xffc82001
    3aa6:	ffc42001 			; <UNDEFINED> instruction: 0xffc42001
    3aaa:	ffc02001 			; <UNDEFINED> instruction: 0xffc02001
    3aae:	ffbc2001 			; <UNDEFINED> instruction: 0xffbc2001
    3ab2:	ffb82001 			; <UNDEFINED> instruction: 0xffb82001
    3ab6:	ffb42001 			; <UNDEFINED> instruction: 0xffb42001
    3aba:	ffb02001 			; <UNDEFINED> instruction: 0xffb02001
    3abe:	ffac2001 			; <UNDEFINED> instruction: 0xffac2001
    3ac2:	ffa82001 			; <UNDEFINED> instruction: 0xffa82001
    3ac6:	ffa42001 			; <UNDEFINED> instruction: 0xffa42001
    3aca:	03302001 	teqeq	r0, #1
    3ace:	02302000 	eorseq	r2, r0, #0
    3ad2:	00002000 	andeq	r2, r0, r0
    3ad6:	00042000 	andeq	r2, r4, r0
    3ada:	01882000 	orreq	r2, r8, r0
    3ade:	00000000 	andeq	r0, r0, r0
    3ae2:	ffff2002 			; <UNDEFINED> instruction: 0xffff2002
    3ae6:	01000000 	mrseq	r0, (UNDEF: 0)
    3aea:	001c0000 	andseq	r0, ip, r0
    3aee:	00242000 	eoreq	r2, r4, r0
    3af2:	00002000 	andeq	r2, r0, r0
    3af6:	40000008 	andmi	r0, r0, r8
    3afa:	00180000 	andseq	r0, r8, r0
    3afe:	00082000 	andeq	r2, r8, r0
    3b02:	3a8e2000 	bcc	fe38bb0a <BIT31+0x7e38bb0a>
	...

Disassembly of section .ARM.attributes:

00000000 <.ARM.attributes>:
   0:	00002041 	andeq	r2, r0, r1, asr #32
   4:	61656100 	cmnvs	r5, r0, lsl #2
   8:	01006962 	tsteq	r0, r2, ror #18
   c:	00000016 	andeq	r0, r0, r6, lsl r0
  10:	726f4305 	rsbvc	r4, pc, #335544320	; 0x14000000
  14:	2d786574 	cfldr64cs	mvdx6, [r8, #-464]!	; 0xfffffe30
  18:	0600344d 	streq	r3, [r0], -sp, asr #8
  1c:	094d070d 	stmdbeq	sp, {r0, r2, r3, r8, r9, sl}^
  20:	Address 0x00000020 is out of bounds.

